---
triple:          'arm64-apple-darwin'
binary-path:     main
relocations:
  - { offsetInCU: 0x53, offset: 0x53, size: 0x8, addend: 0x0, symName: __ZNSt3__16ranges5__cpo9iter_moveE, symObjAddr: 0x81EC, symBinAddr: 0x10000BAA0, symSize: 0x0 }
  - { offsetInCU: 0x9219, offset: 0x9219, size: 0x8, addend: 0x0, symName: __ZNSt3__14endlB7v160006IcNS_11char_traitsIcEEEERNS_13basic_ostreamIT_T0_EES7_, symObjAddr: 0x340, symBinAddr: 0x100003A14, symSize: 0x58 }
  - { offsetInCU: 0x9259, offset: 0x9259, size: 0x8, addend: 0x0, symName: __ZNSt3__13maxB7v160006ImEERKT_S3_S3_, symObjAddr: 0x1B34, symBinAddr: 0x100005208, symSize: 0x2C }
  - { offsetInCU: 0x96F5, offset: 0x96F5, size: 0x8, addend: 0x0, symName: __ZNSt3__14swapB7v160006IPPiEENS_9enable_ifIXaasr21is_move_constructibleIT_EE5valuesr18is_move_assignableIS4_EE5valueEvE4typeERS4_S7_, symObjAddr: 0x219C, symBinAddr: 0x100005870, symSize: 0x3C }
  - { offsetInCU: 0x9746, offset: 0x9746, size: 0x8, addend: 0x0, symName: __ZNSt3__14moveB7v160006IPPiS2_EET0_T_S4_S3_, symObjAddr: 0x22CC, symBinAddr: 0x1000059A0, symSize: 0x40 }
  - { offsetInCU: 0x97BC, offset: 0x97BC, size: 0x8, addend: 0x0, symName: __ZNSt3__112__to_addressB7v160006IPiEEPT_S3_, symObjAddr: 0x246C, symBinAddr: 0x100005B40, symSize: 0x14 }
  - { offsetInCU: 0x97F1, offset: 0x97F1, size: 0x8, addend: 0x0, symName: __ZNSt3__16__moveB7v160006INS_17_ClassicAlgPolicyEPPiS3_S3_EENS_4pairIT0_T2_EES5_T1_S6_, symObjAddr: 0x2480, symBinAddr: 0x100005B54, symSize: 0x44 }
  - { offsetInCU: 0x985D, offset: 0x985D, size: 0x8, addend: 0x0, symName: __ZNSt3__123__dispatch_copy_or_moveB7v160006INS_17_ClassicAlgPolicyENS_11__move_loopIS1_EENS_14__move_trivialEPPiS6_S6_EENS_4pairIT2_T4_EES8_T3_S9_, symObjAddr: 0x24C4, symBinAddr: 0x100005B98, symSize: 0x44 }
  - { offsetInCU: 0x98DB, offset: 0x98DB, size: 0x8, addend: 0x0, symName: __ZNSt3__121__unwrap_and_dispatchB7v160006INS_10__overloadINS_11__move_loopINS_17_ClassicAlgPolicyEEENS_14__move_trivialEEEPPiS8_S8_Li0EEENS_4pairIT0_T2_EESA_T1_SB_, symObjAddr: 0x2508, symBinAddr: 0x100005BDC, symSize: 0xB4 }
  - { offsetInCU: 0x9969, offset: 0x9969, size: 0x8, addend: 0x0, symName: __ZNSt3__114__unwrap_rangeB7v160006IPPiS2_EEDaT_T0_, symObjAddr: 0x25BC, symBinAddr: 0x100005C90, symSize: 0x3C }
  - { offsetInCU: 0x9B69, offset: 0x9B69, size: 0x8, addend: 0x0, symName: __ZNSt3__113__unwrap_iterB7v160006IPPiNS_18__unwrap_iter_implIS2_Lb1EEELi0EEEDTclsrT0_8__unwrapclsr3stdE7declvalIT_EEEES6_, symObjAddr: 0x2640, symBinAddr: 0x100005D14, symSize: 0x24 }
  - { offsetInCU: 0x9BAD, offset: 0x9BAD, size: 0x8, addend: 0x0, symName: __ZNSt3__19make_pairB7v160006IPPiS2_EENS_4pairINS_18__unwrap_ref_decayIT_E4typeENS4_IT0_E4typeEEEOS5_OS8_, symObjAddr: 0x2664, symBinAddr: 0x100005D38, symSize: 0x38 }
  - { offsetInCU: 0x9BFC, offset: 0x9BFC, size: 0x8, addend: 0x0, symName: __ZNSt3__114__rewrap_rangeB7v160006IPPiS2_S2_EET0_S3_T1_, symObjAddr: 0x269C, symBinAddr: 0x100005D70, symSize: 0x2C }
  - { offsetInCU: 0x9C51, offset: 0x9C51, size: 0x8, addend: 0x0, symName: __ZNSt3__113__rewrap_iterB7v160006IPPiS2_NS_18__unwrap_iter_implIS2_Lb1EEEEET_S5_T0_, symObjAddr: 0x26C8, symBinAddr: 0x100005D9C, symSize: 0x3C }
  - { offsetInCU: 0x9CF6, offset: 0x9CF6, size: 0x8, addend: 0x0, symName: __ZNSt3__119__copy_trivial_implB7v160006IPiS1_EENS_4pairIPT_PT0_EES4_S4_S6_, symObjAddr: 0x27CC, symBinAddr: 0x100005EA0, symSize: 0x84 }
  - { offsetInCU: 0x9D5E, offset: 0x9D5E, size: 0x8, addend: 0x0, symName: __ZNSt3__19make_pairB7v160006IRPPiS2_EENS_4pairINS_18__unwrap_ref_decayIT_E4typeENS5_IT0_E4typeEEEOS6_OS9_, symObjAddr: 0x2850, symBinAddr: 0x100005F24, symSize: 0x38 }
  - { offsetInCU: 0x9E00, offset: 0x9E00, size: 0x8, addend: 0x0, symName: __ZNSt3__18distanceB7v160006INS_13move_iteratorIPPiEEEENS_15iterator_traitsIT_E15difference_typeES6_S6_, symObjAddr: 0x2998, symBinAddr: 0x10000606C, symSize: 0x3C }
  - { offsetInCU: 0x9E43, offset: 0x9E43, size: 0x8, addend: 0x0, symName: __ZNSt3__110__distanceB7v160006INS_13move_iteratorIPPiEEEENS_15iterator_traitsIT_E15difference_typeES6_S6_NS_26random_access_iterator_tagE, symObjAddr: 0x2AE0, symBinAddr: 0x1000061B4, symSize: 0x30 }
  - { offsetInCU: 0x9E90, offset: 0x9E90, size: 0x8, addend: 0x0, symName: __ZNSt3__1miB7v160006IPPiS2_EEDTmicldtfp_4baseEcldtfp0_4baseEERKNS_13move_iteratorIT_EERKNS4_IT0_EE, symObjAddr: 0x2B10, symBinAddr: 0x1000061E4, symSize: 0x4C }
  - { offsetInCU: 0x9F04, offset: 0x9F04, size: 0x8, addend: 0x0, symName: __ZNSt3__112construct_atB7v160006IPiJS1_EPS1_EEPT_S4_DpOT0_, symObjAddr: 0x2BB4, symBinAddr: 0x100006288, symSize: 0x2C }
  - { offsetInCU: 0x9F74, offset: 0x9F74, size: 0x8, addend: 0x0, symName: __ZNSt3__112construct_atB7v160006IPiJRKS1_EPS1_EEPT_S6_DpOT0_, symObjAddr: 0x2C7C, symBinAddr: 0x100006350, symSize: 0x2C }
  - { offsetInCU: 0x9FE4, offset: 0x9FE4, size: 0x8, addend: 0x0, symName: __ZNSt3__117__libcpp_allocateB7v160006Emm, symObjAddr: 0x2DBC, symBinAddr: 0x100006490, symSize: 0x60 }
  - { offsetInCU: 0xA22A, offset: 0xA22A, size: 0x8, addend: 0x0, symName: __ZNSt3__124__is_overaligned_for_newB7v160006Em, symObjAddr: 0x2E38, symBinAddr: 0x10000650C, symSize: 0x20 }
  - { offsetInCU: 0xA258, offset: 0xA258, size: 0x8, addend: 0x0, symName: __ZNSt3__121__libcpp_operator_newB7v160006IJmSt11align_val_tEEEPvDpT_, symObjAddr: 0x2E58, symBinAddr: 0x10000652C, symSize: 0x2C }
  - { offsetInCU: 0xA2A5, offset: 0xA2A5, size: 0x8, addend: 0x0, symName: __ZNSt3__121__libcpp_operator_newB7v160006IJmEEEPvDpT_, symObjAddr: 0x2E84, symBinAddr: 0x100006558, symSize: 0x24 }
  - { offsetInCU: 0xA2DE, offset: 0xA2DE, size: 0x8, addend: 0x0, symName: __ZNSt3__113move_backwardB7v160006IPPiS2_EET0_T_S4_S3_, symObjAddr: 0x2EA8, symBinAddr: 0x10000657C, symSize: 0x40 }
  - { offsetInCU: 0xA338, offset: 0xA338, size: 0x8, addend: 0x0, symName: __ZNSt3__115__move_backwardB7v160006INS_17_ClassicAlgPolicyEPPiS3_S3_EENS_4pairIT0_T2_EES5_T1_S6_, symObjAddr: 0x2EE8, symBinAddr: 0x1000065BC, symSize: 0x44 }
  - { offsetInCU: 0xA3A4, offset: 0xA3A4, size: 0x8, addend: 0x0, symName: __ZNSt3__123__dispatch_copy_or_moveB7v160006INS_17_ClassicAlgPolicyENS_20__move_backward_loopIS1_EENS_23__move_backward_trivialEPPiS6_S6_EENS_4pairIT2_T4_EES8_T3_S9_, symObjAddr: 0x2F2C, symBinAddr: 0x100006600, symSize: 0x44 }
  - { offsetInCU: 0xA422, offset: 0xA422, size: 0x8, addend: 0x0, symName: __ZNSt3__121__unwrap_and_dispatchB7v160006INS_10__overloadINS_20__move_backward_loopINS_17_ClassicAlgPolicyEEENS_23__move_backward_trivialEEEPPiS8_S8_Li0EEENS_4pairIT0_T2_EESA_T1_SB_, symObjAddr: 0x2F70, symBinAddr: 0x100006644, symSize: 0xB4 }
  - { offsetInCU: 0xA532, offset: 0xA532, size: 0x8, addend: 0x0, symName: __ZNSt3__128__copy_backward_trivial_implB7v160006IPiS1_EENS_4pairIPT_PT0_EES4_S4_S6_, symObjAddr: 0x306C, symBinAddr: 0x100006740, symSize: 0x94 }
  - { offsetInCU: 0xA59A, offset: 0xA59A, size: 0x8, addend: 0x0, symName: __ZNSt3__19make_pairB7v160006IRPPiS3_EENS_4pairINS_18__unwrap_ref_decayIT_E4typeENS5_IT0_E4typeEEEOS6_OS9_, symObjAddr: 0x3100, symBinAddr: 0x1000067D4, symSize: 0x38 }
  - { offsetInCU: 0xA5E9, offset: 0xA5E9, size: 0x8, addend: 0x0, symName: __ZNSt3__13maxB7v160006ImNS_6__lessImmEEEERKT_S5_S5_T0_, symObjAddr: 0x31A8, symBinAddr: 0x10000687C, symSize: 0x54 }
  - { offsetInCU: 0xA67E, offset: 0xA67E, size: 0x8, addend: 0x0, symName: __ZNSt3__119__allocate_at_leastB7v160006INS_9allocatorIPiEEEENS_19__allocation_resultINS_16allocator_traitsIT_E7pointerEEERS6_m, symObjAddr: 0x3378, symBinAddr: 0x100006A4C, symSize: 0x40 }
  - { offsetInCU: 0xA6C1, offset: 0xA6C1, size: 0x8, addend: 0x0, symName: __ZNSt3__119__libcpp_deallocateB7v160006EPvmm, symObjAddr: 0x3838, symBinAddr: 0x100006F0C, symSize: 0x60 }
  - { offsetInCU: 0xA726, offset: 0xA726, size: 0x8, addend: 0x0, symName: __ZNSt3__127__do_deallocate_handle_sizeB7v160006IJSt11align_val_tEEEvPvmDpT_, symObjAddr: 0x3898, symBinAddr: 0x100006F6C, symSize: 0x30 }
  - { offsetInCU: 0xA779, offset: 0xA779, size: 0x8, addend: 0x0, symName: __ZNSt3__127__do_deallocate_handle_sizeB7v160006IJEEEvPvmDpT_, symObjAddr: 0x38C8, symBinAddr: 0x100006F9C, symSize: 0x28 }
  - { offsetInCU: 0xA7B7, offset: 0xA7B7, size: 0x8, addend: 0x0, symName: __ZNSt3__124__libcpp_operator_deleteB7v160006IJPvSt11align_val_tEEEvDpT_, symObjAddr: 0x38F0, symBinAddr: 0x100006FC4, symSize: 0x2C }
  - { offsetInCU: 0xA800, offset: 0xA800, size: 0x8, addend: 0x0, symName: __ZNSt3__124__libcpp_operator_deleteB7v160006IJPvEEEvDpT_, symObjAddr: 0x391C, symBinAddr: 0x100006FF0, symSize: 0x24 }
  - { offsetInCU: 0xA835, offset: 0xA835, size: 0x8, addend: 0x0, symName: __ZNSt3__110destroy_atB7v160006IPiLi0EEEvPT_, symObjAddr: 0x3B3C, symBinAddr: 0x100007210, symSize: 0x24 }
  - { offsetInCU: 0xA86C, offset: 0xA86C, size: 0x8, addend: 0x0, symName: __ZNSt3__112__destroy_atB7v160006IPiLi0EEEvPT_, symObjAddr: 0x3B60, symBinAddr: 0x100007234, symSize: 0x10 }
  - { offsetInCU: 0xA8C8, offset: 0xA8C8, size: 0x8, addend: 0x0, symName: __ZNSt3__112construct_atB7v160006IiJRKiEPiEEPT_S5_DpOT0_, symObjAddr: 0x3BFC, symBinAddr: 0x1000072D0, symSize: 0x2C }
  - { offsetInCU: 0xAD91, offset: 0xAD91, size: 0x8, addend: 0x0, symName: __ZNSt3__14swapB7v160006IPPNS_4pairIiiEEEENS_9enable_ifIXaasr21is_move_constructibleIT_EE5valuesr18is_move_assignableIS6_EE5valueEvE4typeERS6_S9_, symObjAddr: 0x52BC, symBinAddr: 0x100008990, symSize: 0x3C }
  - { offsetInCU: 0xADE2, offset: 0xADE2, size: 0x8, addend: 0x0, symName: __ZNSt3__14moveB7v160006IPPNS_4pairIiiEES4_EET0_T_S6_S5_, symObjAddr: 0x53EC, symBinAddr: 0x100008AC0, symSize: 0x40 }
  - { offsetInCU: 0xAE3C, offset: 0xAE3C, size: 0x8, addend: 0x0, symName: __ZNSt3__112__to_addressB7v160006IPNS_4pairIiiEEEEPT_S5_, symObjAddr: 0x558C, symBinAddr: 0x100008C60, symSize: 0x14 }
  - { offsetInCU: 0xAE71, offset: 0xAE71, size: 0x8, addend: 0x0, symName: __ZNSt3__16__moveB7v160006INS_17_ClassicAlgPolicyEPPNS_4pairIiiEES5_S5_EENS2_IT0_T2_EES6_T1_S7_, symObjAddr: 0x55A0, symBinAddr: 0x100008C74, symSize: 0x44 }
  - { offsetInCU: 0xAEDD, offset: 0xAEDD, size: 0x8, addend: 0x0, symName: __ZNSt3__123__dispatch_copy_or_moveB7v160006INS_17_ClassicAlgPolicyENS_11__move_loopIS1_EENS_14__move_trivialEPPNS_4pairIiiEES8_S8_EENS5_IT2_T4_EES9_T3_SA_, symObjAddr: 0x55E4, symBinAddr: 0x100008CB8, symSize: 0x44 }
  - { offsetInCU: 0xAF5B, offset: 0xAF5B, size: 0x8, addend: 0x0, symName: __ZNSt3__121__unwrap_and_dispatchB7v160006INS_10__overloadINS_11__move_loopINS_17_ClassicAlgPolicyEEENS_14__move_trivialEEEPPNS_4pairIiiEESA_SA_Li0EEENS7_IT0_T2_EESB_T1_SC_, symObjAddr: 0x5628, symBinAddr: 0x100008CFC, symSize: 0xB4 }
  - { offsetInCU: 0xAFE9, offset: 0xAFE9, size: 0x8, addend: 0x0, symName: __ZNSt3__114__unwrap_rangeB7v160006IPPNS_4pairIiiEES4_EEDaT_T0_, symObjAddr: 0x56DC, symBinAddr: 0x100008DB0, symSize: 0x3C }
  - { offsetInCU: 0xB167, offset: 0xB167, size: 0x8, addend: 0x0, symName: __ZNSt3__113__unwrap_iterB7v160006IPPNS_4pairIiiEENS_18__unwrap_iter_implIS4_Lb1EEELi0EEEDTclsrT0_8__unwrapclsr3stdE7declvalIT_EEEES8_, symObjAddr: 0x5760, symBinAddr: 0x100008E34, symSize: 0x24 }
  - { offsetInCU: 0xB1AB, offset: 0xB1AB, size: 0x8, addend: 0x0, symName: __ZNSt3__19make_pairB7v160006IPPNS_4pairIiiEES4_EENS1_INS_18__unwrap_ref_decayIT_E4typeENS5_IT0_E4typeEEEOS6_OS9_, symObjAddr: 0x5784, symBinAddr: 0x100008E58, symSize: 0x38 }
  - { offsetInCU: 0xB1FA, offset: 0xB1FA, size: 0x8, addend: 0x0, symName: __ZNSt3__114__rewrap_rangeB7v160006IPPNS_4pairIiiEES4_S4_EET0_S5_T1_, symObjAddr: 0x57BC, symBinAddr: 0x100008E90, symSize: 0x2C }
  - { offsetInCU: 0xB24F, offset: 0xB24F, size: 0x8, addend: 0x0, symName: __ZNSt3__113__rewrap_iterB7v160006IPPNS_4pairIiiEES4_NS_18__unwrap_iter_implIS4_Lb1EEEEET_S7_T0_, symObjAddr: 0x57E8, symBinAddr: 0x100008EBC, symSize: 0x3C }
  - { offsetInCU: 0xB2F4, offset: 0xB2F4, size: 0x8, addend: 0x0, symName: __ZNSt3__119__copy_trivial_implB7v160006IPNS_4pairIiiEES3_EENS1_IPT_PT0_EES5_S5_S7_, symObjAddr: 0x58EC, symBinAddr: 0x100008FC0, symSize: 0x84 }
  - { offsetInCU: 0xB35C, offset: 0xB35C, size: 0x8, addend: 0x0, symName: __ZNSt3__19make_pairB7v160006IRPPNS_4pairIiiEES4_EENS1_INS_18__unwrap_ref_decayIT_E4typeENS6_IT0_E4typeEEEOS7_OSA_, symObjAddr: 0x5970, symBinAddr: 0x100009044, symSize: 0x38 }
  - { offsetInCU: 0xB3FE, offset: 0xB3FE, size: 0x8, addend: 0x0, symName: __ZNSt3__18distanceB7v160006INS_13move_iteratorIPPNS_4pairIiiEEEEEENS_15iterator_traitsIT_E15difference_typeES8_S8_, symObjAddr: 0x5AB8, symBinAddr: 0x10000918C, symSize: 0x3C }
  - { offsetInCU: 0xB441, offset: 0xB441, size: 0x8, addend: 0x0, symName: __ZNSt3__110__distanceB7v160006INS_13move_iteratorIPPNS_4pairIiiEEEEEENS_15iterator_traitsIT_E15difference_typeES8_S8_NS_26random_access_iterator_tagE, symObjAddr: 0x5C00, symBinAddr: 0x1000092D4, symSize: 0x30 }
  - { offsetInCU: 0xB48E, offset: 0xB48E, size: 0x8, addend: 0x0, symName: __ZNSt3__1miB7v160006IPPNS_4pairIiiEES4_EEDTmicldtfp_4baseEcldtfp0_4baseEERKNS_13move_iteratorIT_EERKNS6_IT0_EE, symObjAddr: 0x5C30, symBinAddr: 0x100009304, symSize: 0x4C }
  - { offsetInCU: 0xB502, offset: 0xB502, size: 0x8, addend: 0x0, symName: __ZNSt3__112construct_atB7v160006IPNS_4pairIiiEEJS3_EPS3_EEPT_S6_DpOT0_, symObjAddr: 0x5CD4, symBinAddr: 0x1000093A8, symSize: 0x2C }
  - { offsetInCU: 0xB572, offset: 0xB572, size: 0x8, addend: 0x0, symName: __ZNSt3__112construct_atB7v160006IPNS_4pairIiiEEJRKS3_EPS3_EEPT_S8_DpOT0_, symObjAddr: 0x5D9C, symBinAddr: 0x100009470, symSize: 0x2C }
  - { offsetInCU: 0xB5E2, offset: 0xB5E2, size: 0x8, addend: 0x0, symName: __ZNSt3__113move_backwardB7v160006IPPNS_4pairIiiEES4_EET0_T_S6_S5_, symObjAddr: 0x5EA8, symBinAddr: 0x10000957C, symSize: 0x40 }
  - { offsetInCU: 0xB63C, offset: 0xB63C, size: 0x8, addend: 0x0, symName: __ZNSt3__115__move_backwardB7v160006INS_17_ClassicAlgPolicyEPPNS_4pairIiiEES5_S5_EENS2_IT0_T2_EES6_T1_S7_, symObjAddr: 0x5EE8, symBinAddr: 0x1000095BC, symSize: 0x44 }
  - { offsetInCU: 0xB6A8, offset: 0xB6A8, size: 0x8, addend: 0x0, symName: __ZNSt3__123__dispatch_copy_or_moveB7v160006INS_17_ClassicAlgPolicyENS_20__move_backward_loopIS1_EENS_23__move_backward_trivialEPPNS_4pairIiiEES8_S8_EENS5_IT2_T4_EES9_T3_SA_, symObjAddr: 0x5F2C, symBinAddr: 0x100009600, symSize: 0x44 }
  - { offsetInCU: 0xB726, offset: 0xB726, size: 0x8, addend: 0x0, symName: __ZNSt3__121__unwrap_and_dispatchB7v160006INS_10__overloadINS_20__move_backward_loopINS_17_ClassicAlgPolicyEEENS_23__move_backward_trivialEEEPPNS_4pairIiiEESA_SA_Li0EEENS7_IT0_T2_EESB_T1_SC_, symObjAddr: 0x5F70, symBinAddr: 0x100009644, symSize: 0xB4 }
  - { offsetInCU: 0xB7B4, offset: 0xB7B4, size: 0x8, addend: 0x0, symName: __ZNSt3__128__copy_backward_trivial_implB7v160006IPNS_4pairIiiEES3_EENS1_IPT_PT0_EES5_S5_S7_, symObjAddr: 0x606C, symBinAddr: 0x100009740, symSize: 0x94 }
  - { offsetInCU: 0xB81C, offset: 0xB81C, size: 0x8, addend: 0x0, symName: __ZNSt3__19make_pairB7v160006IRPPNS_4pairIiiEES5_EENS1_INS_18__unwrap_ref_decayIT_E4typeENS6_IT0_E4typeEEEOS7_OSA_, symObjAddr: 0x6100, symBinAddr: 0x1000097D4, symSize: 0x38 }
  - { offsetInCU: 0xB86B, offset: 0xB86B, size: 0x8, addend: 0x0, symName: __ZNSt3__119__allocate_at_leastB7v160006INS_9allocatorIPNS_4pairIiiEEEEEENS_19__allocation_resultINS_16allocator_traitsIT_E7pointerEEERS8_m, symObjAddr: 0x62F0, symBinAddr: 0x1000099C4, symSize: 0x40 }
  - { offsetInCU: 0xB8AE, offset: 0xB8AE, size: 0x8, addend: 0x0, symName: __ZNSt3__110destroy_atB7v160006IPNS_4pairIiiEELi0EEEvPT_, symObjAddr: 0x69AC, symBinAddr: 0x10000A080, symSize: 0x24 }
  - { offsetInCU: 0xB8E5, offset: 0xB8E5, size: 0x8, addend: 0x0, symName: __ZNSt3__112__destroy_atB7v160006IPNS_4pairIiiEELi0EEEvPT_, symObjAddr: 0x69D0, symBinAddr: 0x10000A0A4, symSize: 0x10 }
  - { offsetInCU: 0xB941, offset: 0xB941, size: 0x8, addend: 0x0, symName: __ZNSt3__112construct_atB7v160006INS_4pairIiiEEJRiiEPS2_EEPT_S6_DpOT0_, symObjAddr: 0x6A6C, symBinAddr: 0x10000A140, symSize: 0x44 }
  - { offsetInCU: 0xB9C4, offset: 0xB9C4, size: 0x8, addend: 0x0, symName: __ZNSt3__112__to_addressB7v160006IiEEPT_S2_, symObjAddr: 0x6EEC, symBinAddr: 0x10000A5C0, symSize: 0x14 }
  - { offsetInCU: 0xB9F9, offset: 0xB9F9, size: 0x8, addend: 0x0, symName: __ZNSt3__110destroy_atB7v160006IiLi0EEEvPT_, symObjAddr: 0x6FCC, symBinAddr: 0x10000A6A0, symSize: 0x24 }
  - { offsetInCU: 0xBA30, offset: 0xBA30, size: 0x8, addend: 0x0, symName: __ZNSt3__112__destroy_atB7v160006IiLi0EEEvPT_, symObjAddr: 0x6FF0, symBinAddr: 0x10000A6C4, symSize: 0x10 }
  - { offsetInCU: 0xBA67, offset: 0xBA67, size: 0x8, addend: 0x0, symName: __ZNSt3__112__to_addressB7v160006INS_4pairIiiEEEEPT_S4_, symObjAddr: 0x7200, symBinAddr: 0x10000A8D4, symSize: 0x14 }
  - { offsetInCU: 0xBA9C, offset: 0xBA9C, size: 0x8, addend: 0x0, symName: __ZNSt3__110destroy_atB7v160006INS_4pairIiiEELi0EEEvPT_, symObjAddr: 0x72E0, symBinAddr: 0x10000A9B4, symSize: 0x24 }
  - { offsetInCU: 0xBAD3, offset: 0xBAD3, size: 0x8, addend: 0x0, symName: __ZNSt3__112__destroy_atB7v160006INS_4pairIiiEELi0EEEvPT_, symObjAddr: 0x7304, symBinAddr: 0x10000A9D8, symSize: 0x10 }
  - { offsetInCU: 0xBB0A, offset: 0xBB0A, size: 0x8, addend: 0x0, symName: __ZNSt3__1neB7v160006ERKNS_16__deque_iteratorINS_4pairIiiEEPS2_RS2_PS3_lLl512EEES8_, symObjAddr: 0x77E8, symBinAddr: 0x10000AEBC, symSize: 0x34 }
  - { offsetInCU: 0xBB47, offset: 0xBB47, size: 0x8, addend: 0x0, symName: __ZNSt3__1eqB7v160006ERKNS_16__deque_iteratorINS_4pairIiiEEPS2_RS2_PS3_lLl512EEES8_, symObjAddr: 0x788C, symBinAddr: 0x10000AF60, symSize: 0x30 }
  - { offsetInCU: 0xBB84, offset: 0xBB84, size: 0x8, addend: 0x0, symName: __ZNSt3__1neB7v160006ERKNS_16__deque_iteratorIiPiRiPS1_lLl1024EEES6_, symObjAddr: 0x7C88, symBinAddr: 0x10000B35C, symSize: 0x34 }
  - { offsetInCU: 0xBBC1, offset: 0xBBC1, size: 0x8, addend: 0x0, symName: __ZNSt3__1eqB7v160006ERKNS_16__deque_iteratorIiPiRiPS1_lLl1024EEES6_, symObjAddr: 0x7D2C, symBinAddr: 0x10000B400, symSize: 0x30 }
  - { offsetInCU: 0xBBFE, offset: 0xBBFE, size: 0x8, addend: 0x0, symName: __ZNSt3__19use_facetB7v160006INS_5ctypeIcEEEERKT_RKNS_6localeE, symObjAddr: 0x7E88, symBinAddr: 0x10000B55C, symSize: 0x2C }
  - { offsetInCU: 0xC2DD, offset: 0xC2DD, size: 0x8, addend: 0x0, symName: __ZSt28__throw_bad_array_new_lengthB7v160006v, symObjAddr: 0x2D88, symBinAddr: 0x10000645C, symSize: 0x34 }
  - { offsetInCU: 0xECDC, offset: 0xECDC, size: 0x8, addend: 0x0, symName: _main, symObjAddr: 0x0, symBinAddr: 0x1000036D4, symSize: 0x164 }
  - { offsetInCU: 0xEE24, offset: 0xEE24, size: 0x8, addend: 0x0, symName: __ZN8MinStackC1Ev, symObjAddr: 0x164, symBinAddr: 0x100003838, symSize: 0x2C }
  - { offsetInCU: 0xEE4E, offset: 0xEE4E, size: 0x8, addend: 0x0, symName: __ZN8MinStack4pushEi, symObjAddr: 0x190, symBinAddr: 0x100003864, symSize: 0xE8 }
  - { offsetInCU: 0xEE90, offset: 0xEE90, size: 0x8, addend: 0x0, symName: __ZNK8MinStack6getMinEv, symObjAddr: 0x278, symBinAddr: 0x10000394C, symSize: 0x9C }
  - { offsetInCU: 0xEF68, offset: 0xEF68, size: 0x8, addend: 0x0, symName: __ZNSt3__113basic_ostreamIcNS_11char_traitsIcEEElsB7v160006EPFRS3_S4_E, symObjAddr: 0x314, symBinAddr: 0x1000039E8, symSize: 0x2C }
  - { offsetInCU: 0xEF9C, offset: 0xEF9C, size: 0x8, addend: 0x0, symName: __ZN8MinStack3popEv, symObjAddr: 0x398, symBinAddr: 0x100003A6C, symSize: 0x10C }
  - { offsetInCU: 0xEFDE, offset: 0xEFDE, size: 0x8, addend: 0x0, symName: __ZN8MinStackD1Ev, symObjAddr: 0x4A4, symBinAddr: 0x100003B78, symSize: 0x2C }
  - { offsetInCU: 0xF00A, offset: 0xF00A, size: 0x8, addend: 0x0, symName: __ZN8MinStackC2Ev, symObjAddr: 0x4D0, symBinAddr: 0x100003BA4, symSize: 0x38 }
  - { offsetInCU: 0xF034, offset: 0xF034, size: 0x8, addend: 0x0, symName: __ZNSt3__15stackIiNS_5dequeIiNS_9allocatorIiEEEEEC1B7v160006Ev, symObjAddr: 0x508, symBinAddr: 0x100003BDC, symSize: 0x2C }
  - { offsetInCU: 0xF05E, offset: 0xF05E, size: 0x8, addend: 0x0, symName: __ZNSt3__15stackINS_4pairIiiEENS_5dequeIS2_NS_9allocatorIS2_EEEEEC1B7v160006Ev, symObjAddr: 0x534, symBinAddr: 0x100003C08, symSize: 0x2C }
  - { offsetInCU: 0xF088, offset: 0xF088, size: 0x8, addend: 0x0, symName: __ZNSt3__15stackIiNS_5dequeIiNS_9allocatorIiEEEEEC2B7v160006Ev, symObjAddr: 0x560, symBinAddr: 0x100003C34, symSize: 0x2C }
  - { offsetInCU: 0xF0B2, offset: 0xF0B2, size: 0x8, addend: 0x0, symName: __ZNSt3__15dequeIiNS_9allocatorIiEEEC1B7v160006Ev, symObjAddr: 0x58C, symBinAddr: 0x100003C60, symSize: 0x2C }
  - { offsetInCU: 0xF0DC, offset: 0xF0DC, size: 0x8, addend: 0x0, symName: __ZNSt3__15dequeIiNS_9allocatorIiEEEC2B7v160006Ev, symObjAddr: 0x5B8, symBinAddr: 0x100003C8C, symSize: 0x50 }
  - { offsetInCU: 0xF106, offset: 0xF106, size: 0x8, addend: 0x0, symName: __ZNSt3__114__split_bufferIPiNS_9allocatorIS1_EEEC1Ev, symObjAddr: 0x608, symBinAddr: 0x100003CDC, symSize: 0x2C }
  - { offsetInCU: 0xF13E, offset: 0xF13E, size: 0x8, addend: 0x0, symName: __ZNSt3__117__compressed_pairImNS_9allocatorIiEEEC1B7v160006IiNS_18__default_init_tagEEEOT_OT0_, symObjAddr: 0x634, symBinAddr: 0x100003D08, symSize: 0x3C }
  - { offsetInCU: 0xF196, offset: 0xF196, size: 0x8, addend: 0x0, symName: __ZNSt3__114__split_bufferIPiNS_9allocatorIS1_EEEC2Ev, symObjAddr: 0x67C, symBinAddr: 0x100003D50, symSize: 0x50 }
  - { offsetInCU: 0xF1C8, offset: 0xF1C8, size: 0x8, addend: 0x0, symName: __ZNSt3__117__compressed_pairIPPiNS_9allocatorIS1_EEEC1B7v160006IDnNS_18__default_init_tagEEEOT_OT0_, symObjAddr: 0x6CC, symBinAddr: 0x100003DA0, symSize: 0x3C }
  - { offsetInCU: 0xF220, offset: 0xF220, size: 0x8, addend: 0x0, symName: __ZNSt3__117__compressed_pairIPPiNS_9allocatorIS1_EEEC2B7v160006IDnNS_18__default_init_tagEEEOT_OT0_, symObjAddr: 0x708, symBinAddr: 0x100003DDC, symSize: 0x40 }
  - { offsetInCU: 0xF278, offset: 0xF278, size: 0x8, addend: 0x0, symName: __ZNSt3__122__compressed_pair_elemIPPiLi0ELb0EEC2B7v160006IDnvEEOT_, symObjAddr: 0x748, symBinAddr: 0x100003E1C, symSize: 0x1C }
  - { offsetInCU: 0xF2BA, offset: 0xF2BA, size: 0x8, addend: 0x0, symName: __ZNSt3__122__compressed_pair_elemINS_9allocatorIPiEELi1ELb1EEC2B7v160006ENS_18__default_init_tagE, symObjAddr: 0x764, symBinAddr: 0x100003E38, symSize: 0x2C }
  - { offsetInCU: 0xF2EE, offset: 0xF2EE, size: 0x8, addend: 0x0, symName: __ZNSt3__19allocatorIPiEC2B7v160006Ev, symObjAddr: 0x790, symBinAddr: 0x100003E64, symSize: 0x2C }
  - { offsetInCU: 0xF318, offset: 0xF318, size: 0x8, addend: 0x0, symName: __ZNSt3__116__non_trivial_ifILb1ENS_9allocatorIPiEEEC2B7v160006Ev, symObjAddr: 0x7BC, symBinAddr: 0x100003E90, symSize: 0x14 }
  - { offsetInCU: 0xF342, offset: 0xF342, size: 0x8, addend: 0x0, symName: __ZNSt3__117__compressed_pairImNS_9allocatorIiEEEC2B7v160006IiNS_18__default_init_tagEEEOT_OT0_, symObjAddr: 0x7D0, symBinAddr: 0x100003EA4, symSize: 0x40 }
  - { offsetInCU: 0xF39A, offset: 0xF39A, size: 0x8, addend: 0x0, symName: __ZNSt3__122__compressed_pair_elemImLi0ELb0EEC2B7v160006IivEEOT_, symObjAddr: 0x810, symBinAddr: 0x100003EE4, symSize: 0x24 }
  - { offsetInCU: 0xF3DC, offset: 0xF3DC, size: 0x8, addend: 0x0, symName: __ZNSt3__122__compressed_pair_elemINS_9allocatorIiEELi1ELb1EEC2B7v160006ENS_18__default_init_tagE, symObjAddr: 0x834, symBinAddr: 0x100003F08, symSize: 0x2C }
  - { offsetInCU: 0xF410, offset: 0xF410, size: 0x8, addend: 0x0, symName: __ZNSt3__19allocatorIiEC2B7v160006Ev, symObjAddr: 0x860, symBinAddr: 0x100003F34, symSize: 0x2C }
  - { offsetInCU: 0xF43A, offset: 0xF43A, size: 0x8, addend: 0x0, symName: __ZNSt3__116__non_trivial_ifILb1ENS_9allocatorIiEEEC2B7v160006Ev, symObjAddr: 0x88C, symBinAddr: 0x100003F60, symSize: 0x14 }
  - { offsetInCU: 0xF464, offset: 0xF464, size: 0x8, addend: 0x0, symName: __ZNSt3__15stackINS_4pairIiiEENS_5dequeIS2_NS_9allocatorIS2_EEEEEC2B7v160006Ev, symObjAddr: 0x8A0, symBinAddr: 0x100003F74, symSize: 0x2C }
  - { offsetInCU: 0xF48E, offset: 0xF48E, size: 0x8, addend: 0x0, symName: __ZNSt3__15dequeINS_4pairIiiEENS_9allocatorIS2_EEEC1B7v160006Ev, symObjAddr: 0x8CC, symBinAddr: 0x100003FA0, symSize: 0x2C }
  - { offsetInCU: 0xF4B8, offset: 0xF4B8, size: 0x8, addend: 0x0, symName: __ZNSt3__15dequeINS_4pairIiiEENS_9allocatorIS2_EEEC2B7v160006Ev, symObjAddr: 0x8F8, symBinAddr: 0x100003FCC, symSize: 0x50 }
  - { offsetInCU: 0xF4E2, offset: 0xF4E2, size: 0x8, addend: 0x0, symName: __ZNSt3__114__split_bufferIPNS_4pairIiiEENS_9allocatorIS3_EEEC1Ev, symObjAddr: 0x948, symBinAddr: 0x10000401C, symSize: 0x2C }
  - { offsetInCU: 0xF50E, offset: 0xF50E, size: 0x8, addend: 0x0, symName: __ZNSt3__117__compressed_pairImNS_9allocatorINS_4pairIiiEEEEEC1B7v160006IiNS_18__default_init_tagEEEOT_OT0_, symObjAddr: 0x974, symBinAddr: 0x100004048, symSize: 0x3C }
  - { offsetInCU: 0xF566, offset: 0xF566, size: 0x8, addend: 0x0, symName: __ZNSt3__114__split_bufferIPNS_4pairIiiEENS_9allocatorIS3_EEEC2Ev, symObjAddr: 0x9B0, symBinAddr: 0x100004084, symSize: 0x50 }
  - { offsetInCU: 0xF592, offset: 0xF592, size: 0x8, addend: 0x0, symName: __ZNSt3__117__compressed_pairIPPNS_4pairIiiEENS_9allocatorIS3_EEEC1B7v160006IDnNS_18__default_init_tagEEEOT_OT0_, symObjAddr: 0xA00, symBinAddr: 0x1000040D4, symSize: 0x3C }
  - { offsetInCU: 0xF5EA, offset: 0xF5EA, size: 0x8, addend: 0x0, symName: __ZNSt3__117__compressed_pairIPPNS_4pairIiiEENS_9allocatorIS3_EEEC2B7v160006IDnNS_18__default_init_tagEEEOT_OT0_, symObjAddr: 0xA3C, symBinAddr: 0x100004110, symSize: 0x40 }
  - { offsetInCU: 0xF642, offset: 0xF642, size: 0x8, addend: 0x0, symName: __ZNSt3__122__compressed_pair_elemIPPNS_4pairIiiEELi0ELb0EEC2B7v160006IDnvEEOT_, symObjAddr: 0xA7C, symBinAddr: 0x100004150, symSize: 0x1C }
  - { offsetInCU: 0xF684, offset: 0xF684, size: 0x8, addend: 0x0, symName: __ZNSt3__122__compressed_pair_elemINS_9allocatorIPNS_4pairIiiEEEELi1ELb1EEC2B7v160006ENS_18__default_init_tagE, symObjAddr: 0xA98, symBinAddr: 0x10000416C, symSize: 0x2C }
  - { offsetInCU: 0xF6B8, offset: 0xF6B8, size: 0x8, addend: 0x0, symName: __ZNSt3__19allocatorIPNS_4pairIiiEEEC2B7v160006Ev, symObjAddr: 0xAC4, symBinAddr: 0x100004198, symSize: 0x2C }
  - { offsetInCU: 0xF6E2, offset: 0xF6E2, size: 0x8, addend: 0x0, symName: __ZNSt3__116__non_trivial_ifILb1ENS_9allocatorIPNS_4pairIiiEEEEEC2B7v160006Ev, symObjAddr: 0xAF0, symBinAddr: 0x1000041C4, symSize: 0x14 }
  - { offsetInCU: 0xF70C, offset: 0xF70C, size: 0x8, addend: 0x0, symName: __ZNSt3__117__compressed_pairImNS_9allocatorINS_4pairIiiEEEEEC2B7v160006IiNS_18__default_init_tagEEEOT_OT0_, symObjAddr: 0xB04, symBinAddr: 0x1000041D8, symSize: 0x40 }
  - { offsetInCU: 0xF764, offset: 0xF764, size: 0x8, addend: 0x0, symName: __ZNSt3__122__compressed_pair_elemINS_9allocatorINS_4pairIiiEEEELi1ELb1EEC2B7v160006ENS_18__default_init_tagE, symObjAddr: 0xB44, symBinAddr: 0x100004218, symSize: 0x2C }
  - { offsetInCU: 0xF798, offset: 0xF798, size: 0x8, addend: 0x0, symName: __ZNSt3__19allocatorINS_4pairIiiEEEC2B7v160006Ev, symObjAddr: 0xB70, symBinAddr: 0x100004244, symSize: 0x2C }
  - { offsetInCU: 0xF7C2, offset: 0xF7C2, size: 0x8, addend: 0x0, symName: __ZNSt3__116__non_trivial_ifILb1ENS_9allocatorINS_4pairIiiEEEEEC2B7v160006Ev, symObjAddr: 0xB9C, symBinAddr: 0x100004270, symSize: 0x14 }
  - { offsetInCU: 0xF7EC, offset: 0xF7EC, size: 0x8, addend: 0x0, symName: __ZNSt3__15stackIiNS_5dequeIiNS_9allocatorIiEEEEE4pushB7v160006ERKi, symObjAddr: 0xBB0, symBinAddr: 0x100004284, symSize: 0x2C }
  - { offsetInCU: 0xF820, offset: 0xF820, size: 0x8, addend: 0x0, symName: __ZNKSt3__15stackINS_4pairIiiEENS_5dequeIS2_NS_9allocatorIS2_EEEEE5emptyB7v160006Ev, symObjAddr: 0xBDC, symBinAddr: 0x1000042B0, symSize: 0x28 }
  - { offsetInCU: 0xF846, offset: 0xF846, size: 0x8, addend: 0x0, symName: __ZNSt3__15stackINS_4pairIiiEENS_5dequeIS2_NS_9allocatorIS2_EEEEE7emplaceB7v160006IJRiiEEEDcDpOT_, symObjAddr: 0xC04, symBinAddr: 0x1000042D8, symSize: 0x34 }
  - { offsetInCU: 0xF898, offset: 0xF898, size: 0x8, addend: 0x0, symName: __ZNSt3__15stackINS_4pairIiiEENS_5dequeIS2_NS_9allocatorIS2_EEEEE3topB7v160006Ev, symObjAddr: 0xC38, symBinAddr: 0x10000430C, symSize: 0x24 }
  - { offsetInCU: 0xF8BE, offset: 0xF8BE, size: 0x8, addend: 0x0, symName: __ZNSt3__15dequeIiNS_9allocatorIiEEE9push_backERKi, symObjAddr: 0xC5C, symBinAddr: 0x100004330, symSize: 0xA0 }
  - { offsetInCU: 0xF904, offset: 0xF904, size: 0x8, addend: 0x0, symName: __ZNSt3__15dequeIiNS_9allocatorIiEEE7__allocB7v160006Ev, symObjAddr: 0xCFC, symBinAddr: 0x1000043D0, symSize: 0x28 }
  - { offsetInCU: 0xF92A, offset: 0xF92A, size: 0x8, addend: 0x0, symName: __ZNKSt3__15dequeIiNS_9allocatorIiEEE12__back_spareB7v160006Ev, symObjAddr: 0xD24, symBinAddr: 0x1000043F8, symSize: 0x54 }
  - { offsetInCU: 0xF950, offset: 0xF950, size: 0x8, addend: 0x0, symName: __ZNSt3__15dequeIiNS_9allocatorIiEEE19__add_back_capacityEv, symObjAddr: 0xD78, symBinAddr: 0x10000444C, symSize: 0x314 }
  - { offsetInCU: 0xFA0B, offset: 0xFA0B, size: 0x8, addend: 0x0, symName: __ZNSt3__116allocator_traitsINS_9allocatorIiEEE9constructB7v160006IiJRKiEvvEEvRS2_PT_DpOT0_, symObjAddr: 0x108C, symBinAddr: 0x100004760, symSize: 0x30 }
  - { offsetInCU: 0xFA60, offset: 0xFA60, size: 0x8, addend: 0x0, symName: __ZNSt3__15dequeIiNS_9allocatorIiEEE3endB7v160006Ev, symObjAddr: 0x10BC, symBinAddr: 0x100004790, symSize: 0xCC }
  - { offsetInCU: 0xFAA4, offset: 0xFAA4, size: 0x8, addend: 0x0, symName: __ZNKSt3__116__deque_iteratorIiPiRiPS1_lLl1024EEdeB7v160006Ev, symObjAddr: 0x1188, symBinAddr: 0x10000485C, symSize: 0x18 }
  - { offsetInCU: 0xFACA, offset: 0xFACA, size: 0x8, addend: 0x0, symName: __ZNSt3__15dequeIiNS_9allocatorIiEEE6__sizeB7v160006Ev, symObjAddr: 0x11A0, symBinAddr: 0x100004874, symSize: 0x28 }
  - { offsetInCU: 0xFAF0, offset: 0xFAF0, size: 0x8, addend: 0x0, symName: __ZNSt3__117__compressed_pairImNS_9allocatorIiEEE6secondB7v160006Ev, symObjAddr: 0x11C8, symBinAddr: 0x10000489C, symSize: 0x24 }
  - { offsetInCU: 0xFB16, offset: 0xFB16, size: 0x8, addend: 0x0, symName: __ZNSt3__122__compressed_pair_elemINS_9allocatorIiEELi1ELb1EE5__getB7v160006Ev, symObjAddr: 0x11EC, symBinAddr: 0x1000048C0, symSize: 0x14 }
  - { offsetInCU: 0xFB3C, offset: 0xFB3C, size: 0x8, addend: 0x0, symName: __ZNKSt3__15dequeIiNS_9allocatorIiEEE10__capacityB7v160006Ev, symObjAddr: 0x1200, symBinAddr: 0x1000048D4, symSize: 0x60 }
  - { offsetInCU: 0xFB62, offset: 0xFB62, size: 0x8, addend: 0x0, symName: __ZNKSt3__15dequeIiNS_9allocatorIiEEE4sizeB7v160006Ev, symObjAddr: 0x1260, symBinAddr: 0x100004934, symSize: 0x28 }
  - { offsetInCU: 0xFB88, offset: 0xFB88, size: 0x8, addend: 0x0, symName: __ZNKSt3__114__split_bufferIPiNS_9allocatorIS1_EEE4sizeB7v160006Ev, symObjAddr: 0x1288, symBinAddr: 0x10000495C, symSize: 0x28 }
  - { offsetInCU: 0xFBAE, offset: 0xFBAE, size: 0x8, addend: 0x0, symName: __ZNKSt3__15dequeIiNS_9allocatorIiEEE6__sizeB7v160006Ev, symObjAddr: 0x12B0, symBinAddr: 0x100004984, symSize: 0x28 }
  - { offsetInCU: 0xFBD4, offset: 0xFBD4, size: 0x8, addend: 0x0, symName: __ZNKSt3__117__compressed_pairImNS_9allocatorIiEEE5firstB7v160006Ev, symObjAddr: 0x12D8, symBinAddr: 0x1000049AC, symSize: 0x24 }
  - { offsetInCU: 0xFBFA, offset: 0xFBFA, size: 0x8, addend: 0x0, symName: __ZNKSt3__122__compressed_pair_elemImLi0ELb0EE5__getB7v160006Ev, symObjAddr: 0x12FC, symBinAddr: 0x1000049D0, symSize: 0x14 }
  - { offsetInCU: 0xFC20, offset: 0xFC20, size: 0x8, addend: 0x0, symName: __ZNKSt3__15dequeIiNS_9allocatorIiEEE13__front_spareB7v160006Ev, symObjAddr: 0x1310, symBinAddr: 0x1000049E4, symSize: 0x18 }
  - { offsetInCU: 0xFC46, offset: 0xFC46, size: 0x8, addend: 0x0, symName: __ZNSt3__114__split_bufferIPiNS_9allocatorIS1_EEE5frontB7v160006Ev, symObjAddr: 0x1328, symBinAddr: 0x1000049FC, symSize: 0x18 }
  - { offsetInCU: 0xFC6C, offset: 0xFC6C, size: 0x8, addend: 0x0, symName: __ZNSt3__114__split_bufferIPiNS_9allocatorIS1_EEE9pop_frontB7v160006Ev, symObjAddr: 0x1340, symBinAddr: 0x100004A14, symSize: 0x2C }
  - { offsetInCU: 0xFC92, offset: 0xFC92, size: 0x8, addend: 0x0, symName: __ZNSt3__114__split_bufferIPiNS_9allocatorIS1_EEE9push_backB7v160006ERKS1_, symObjAddr: 0x136C, symBinAddr: 0x100004A40, symSize: 0x260 }
  - { offsetInCU: 0xFD0B, offset: 0xFD0B, size: 0x8, addend: 0x0, symName: __ZNKSt3__114__split_bufferIPiNS_9allocatorIS1_EEE8capacityB7v160006Ev, symObjAddr: 0x15CC, symBinAddr: 0x100004CA0, symSize: 0x40 }
  - { offsetInCU: 0xFD31, offset: 0xFD31, size: 0x8, addend: 0x0, symName: __ZNKSt3__114__split_bufferIPiNS_9allocatorIS1_EEE12__back_spareB7v160006Ev, symObjAddr: 0x160C, symBinAddr: 0x100004CE0, symSize: 0x40 }
  - { offsetInCU: 0xFD57, offset: 0xFD57, size: 0x8, addend: 0x0, symName: __ZNSt3__114__split_bufferIPiNS_9allocatorIS1_EEE9push_backEOS1_, symObjAddr: 0x164C, symBinAddr: 0x100004D20, symSize: 0x260 }
  - { offsetInCU: 0xFDD0, offset: 0xFDD0, size: 0x8, addend: 0x0, symName: __ZNSt3__116allocator_traitsINS_9allocatorIiEEE8allocateB7v160006ERS2_m, symObjAddr: 0x18AC, symBinAddr: 0x100004F80, symSize: 0x2C }
  - { offsetInCU: 0xFE03, offset: 0xFE03, size: 0x8, addend: 0x0, symName: __ZNSt3__114__split_bufferIPiNS_9allocatorIS1_EEE10push_frontEOS1_, symObjAddr: 0x18D8, symBinAddr: 0x100004FAC, symSize: 0x25C }
  - { offsetInCU: 0xFE7C, offset: 0xFE7C, size: 0x8, addend: 0x0, symName: __ZNSt3__114__split_bufferIPiNS_9allocatorIS1_EEE7__allocB7v160006Ev, symObjAddr: 0x1B60, symBinAddr: 0x100005234, symSize: 0x28 }
  - { offsetInCU: 0xFEA2, offset: 0xFEA2, size: 0x8, addend: 0x0, symName: __ZNSt3__114__split_bufferIPiRNS_9allocatorIS1_EEEC1EmmS4_, symObjAddr: 0x1B88, symBinAddr: 0x10000525C, symSize: 0x44 }
  - { offsetInCU: 0xFEFD, offset: 0xFEFD, size: 0x8, addend: 0x0, symName: __ZNSt3__122__allocator_destructorINS_9allocatorIiEEEC1B7v160006ERS2_m, symObjAddr: 0x1BCC, symBinAddr: 0x1000052A0, symSize: 0x3C }
  - { offsetInCU: 0xFFC7, offset: 0xFFC7, size: 0x8, addend: 0x0, symName: __ZNSt3__110unique_ptrIPiNS_22__allocator_destructorINS_9allocatorIiEEEEEC1B7v160006ILb1EvEES1_NS_16__dependent_typeINS_27__unique_ptr_deleter_sfinaeIS5_EEXT_EE20__good_rval_ref_typeE, symObjAddr: 0x1C08, symBinAddr: 0x1000052DC, symSize: 0x3C }
  - { offsetInCU: 0x10018, offset: 0x10018, size: 0x8, addend: 0x0, symName: __ZNSt3__114__split_bufferIPiRNS_9allocatorIS1_EEE9push_backEOS1_, symObjAddr: 0x1C44, symBinAddr: 0x100005318, symSize: 0x260 }
  - { offsetInCU: 0x10091, offset: 0x10091, size: 0x8, addend: 0x0, symName: __ZNKSt3__110unique_ptrIPiNS_22__allocator_destructorINS_9allocatorIiEEEEE3getB7v160006Ev, symObjAddr: 0x1EA4, symBinAddr: 0x100005578, symSize: 0x28 }
  - { offsetInCU: 0x100B7, offset: 0x100B7, size: 0x8, addend: 0x0, symName: __ZNSt3__110unique_ptrIPiNS_22__allocator_destructorINS_9allocatorIiEEEEE7releaseB7v160006Ev, symObjAddr: 0x1ECC, symBinAddr: 0x1000055A0, symSize: 0x44 }
  - { offsetInCU: 0x100EC, offset: 0x100EC, size: 0x8, addend: 0x0, symName: __ZNSt3__114__split_bufferIPiNS_9allocatorIS1_EEE3endB7v160006Ev, symObjAddr: 0x1F10, symBinAddr: 0x1000055E4, symSize: 0x18 }
  - { offsetInCU: 0x10112, offset: 0x10112, size: 0x8, addend: 0x0, symName: __ZNSt3__114__split_bufferIPiNS_9allocatorIS1_EEE5beginB7v160006Ev, symObjAddr: 0x1F28, symBinAddr: 0x1000055FC, symSize: 0x18 }
  - { offsetInCU: 0x10138, offset: 0x10138, size: 0x8, addend: 0x0, symName: __ZNSt3__114__split_bufferIPiRNS_9allocatorIS1_EEE10push_frontERKS1_, symObjAddr: 0x1F40, symBinAddr: 0x100005614, symSize: 0x25C }
  - { offsetInCU: 0x101B1, offset: 0x101B1, size: 0x8, addend: 0x0, symName: __ZNSt3__114__split_bufferIPiNS_9allocatorIS1_EEE9__end_capB7v160006Ev, symObjAddr: 0x21D8, symBinAddr: 0x1000058AC, symSize: 0x28 }
  - { offsetInCU: 0x101D7, offset: 0x101D7, size: 0x8, addend: 0x0, symName: __ZNSt3__114__split_bufferIPiRNS_9allocatorIS1_EEE9__end_capB7v160006Ev, symObjAddr: 0x2200, symBinAddr: 0x1000058D4, symSize: 0x28 }
  - { offsetInCU: 0x101FD, offset: 0x101FD, size: 0x8, addend: 0x0, symName: __ZNSt3__110unique_ptrIPiNS_22__allocator_destructorINS_9allocatorIiEEEEED1B7v160006Ev, symObjAddr: 0x2228, symBinAddr: 0x1000058FC, symSize: 0x2C }
  - { offsetInCU: 0x10227, offset: 0x10227, size: 0x8, addend: 0x0, symName: __ZNSt3__114__split_bufferIPiRNS_9allocatorIS1_EEED1Ev, symObjAddr: 0x2254, symBinAddr: 0x100005928, symSize: 0x2C }
  - { offsetInCU: 0x10253, offset: 0x10253, size: 0x8, addend: 0x0, symName: __ZNSt3__114__split_bufferIPiNS_9allocatorIS1_EEE19__destruct_at_beginB7v160006EPS1_, symObjAddr: 0x2280, symBinAddr: 0x100005954, symSize: 0x2C }
  - { offsetInCU: 0x10287, offset: 0x10287, size: 0x8, addend: 0x0, symName: __ZNSt3__114__split_bufferIPiNS_9allocatorIS1_EEE19__destruct_at_beginEPS1_NS_17integral_constantIbLb1EEE, symObjAddr: 0x22AC, symBinAddr: 0x100005980, symSize: 0x20 }
  - { offsetInCU: 0x102C7, offset: 0x102C7, size: 0x8, addend: 0x0, symName: __ZNSt3__114__split_bufferIPiRNS_9allocatorIS1_EEE18__construct_at_endINS_13move_iteratorIPS1_EEEENS_9enable_ifIXsr27__is_cpp17_forward_iteratorIT_EE5valueEvE4typeESB_SB_, symObjAddr: 0x230C, symBinAddr: 0x1000059E0, symSize: 0xFC }
  - { offsetInCU: 0x10323, offset: 0x10323, size: 0x8, addend: 0x0, symName: __ZNSt3__113move_iteratorIPPiEC1B7v160006ES2_, symObjAddr: 0x2408, symBinAddr: 0x100005ADC, symSize: 0x34 }
  - { offsetInCU: 0x1035B, offset: 0x1035B, size: 0x8, addend: 0x0, symName: __ZNSt3__116allocator_traitsINS_9allocatorIPiEEE9constructB7v160006IS2_JRKS2_EvvEEvRS3_PT_DpOT0_, symObjAddr: 0x243C, symBinAddr: 0x100005B10, symSize: 0x30 }
  - { offsetInCU: 0x103D4, offset: 0x103D4, size: 0x8, addend: 0x0, symName: __ZNKSt3__114__move_trivialclB7v160006IPiS2_Li0EEENS_4pairIPT_PT0_EES5_S5_S7_, symObjAddr: 0x25F8, symBinAddr: 0x100005CCC, symSize: 0x48 }
  - { offsetInCU: 0x1043C, offset: 0x1043C, size: 0x8, addend: 0x0, symName: __ZNSt3__119__unwrap_range_implIPPiS2_E8__unwrapB7v160006ES2_S2_, symObjAddr: 0x2704, symBinAddr: 0x100005DD8, symSize: 0x58 }
  - { offsetInCU: 0x10473, offset: 0x10473, size: 0x8, addend: 0x0, symName: __ZNSt3__14pairIPPiS2_EC1B7v160006IS2_S2_LPv0EEEOT_OT0_, symObjAddr: 0x275C, symBinAddr: 0x100005E30, symSize: 0x3C }
  - { offsetInCU: 0x104D1, offset: 0x104D1, size: 0x8, addend: 0x0, symName: __ZNSt3__14pairIPPiS2_EC2B7v160006IS2_S2_LPv0EEEOT_OT0_, symObjAddr: 0x2798, symBinAddr: 0x100005E6C, symSize: 0x34 }
  - { offsetInCU: 0x1052F, offset: 0x1052F, size: 0x8, addend: 0x0, symName: __ZNSt3__14pairIPPiS2_EC1B7v160006IRS2_S2_LPv0EEEOT_OT0_, symObjAddr: 0x2888, symBinAddr: 0x100005F5C, symSize: 0x3C }
  - { offsetInCU: 0x1058D, offset: 0x1058D, size: 0x8, addend: 0x0, symName: __ZNSt3__14pairIPPiS2_EC2B7v160006IRS2_S2_LPv0EEEOT_OT0_, symObjAddr: 0x28C4, symBinAddr: 0x100005F98, symSize: 0x34 }
  - { offsetInCU: 0x105EB, offset: 0x105EB, size: 0x8, addend: 0x0, symName: __ZNSt3__118__unwrap_iter_implIPPiLb1EE8__unwrapB7v160006ES2_, symObjAddr: 0x28F8, symBinAddr: 0x100005FCC, symSize: 0x24 }
  - { offsetInCU: 0x1060E, offset: 0x1060E, size: 0x8, addend: 0x0, symName: __ZNSt3__119__unwrap_range_implIPPiS2_E8__rewrapB7v160006ES2_S2_, symObjAddr: 0x291C, symBinAddr: 0x100005FF0, symSize: 0x2C }
  - { offsetInCU: 0x1063F, offset: 0x1063F, size: 0x8, addend: 0x0, symName: __ZNSt3__118__unwrap_iter_implIPPiLb1EE8__rewrapB7v160006ES2_S2_, symObjAddr: 0x2948, symBinAddr: 0x10000601C, symSize: 0x50 }
  - { offsetInCU: 0x1067A, offset: 0x1067A, size: 0x8, addend: 0x0, symName: __ZNSt3__114__split_bufferIPiRNS_9allocatorIS1_EEE21_ConstructTransactionC1B7v160006EPPS1_m, symObjAddr: 0x29D4, symBinAddr: 0x1000060A8, symSize: 0x3C }
  - { offsetInCU: 0x106C6, offset: 0x106C6, size: 0x8, addend: 0x0, symName: __ZNSt3__116allocator_traitsINS_9allocatorIPiEEE9constructB7v160006IS2_JS2_EvvEEvRS3_PT_DpOT0_, symObjAddr: 0x2A10, symBinAddr: 0x1000060E4, symSize: 0x30 }
  - { offsetInCU: 0x1071B, offset: 0x1071B, size: 0x8, addend: 0x0, symName: __ZNSt3__114__split_bufferIPiRNS_9allocatorIS1_EEE7__allocB7v160006Ev, symObjAddr: 0x2A40, symBinAddr: 0x100006114, symSize: 0x28 }
  - { offsetInCU: 0x10741, offset: 0x10741, size: 0x8, addend: 0x0, symName: __ZNKSt3__113move_iteratorIPPiEdeB7v160006Ev, symObjAddr: 0x2A68, symBinAddr: 0x10000613C, symSize: 0x2C }
  - { offsetInCU: 0x10767, offset: 0x10767, size: 0x8, addend: 0x0, symName: __ZNSt3__113move_iteratorIPPiEppB7v160006Ev, symObjAddr: 0x2A94, symBinAddr: 0x100006168, symSize: 0x20 }
  - { offsetInCU: 0x1078D, offset: 0x1078D, size: 0x8, addend: 0x0, symName: __ZNSt3__114__split_bufferIPiRNS_9allocatorIS1_EEE21_ConstructTransactionD1B7v160006Ev, symObjAddr: 0x2AB4, symBinAddr: 0x100006188, symSize: 0x2C }
  - { offsetInCU: 0x107B7, offset: 0x107B7, size: 0x8, addend: 0x0, symName: __ZNKRSt3__113move_iteratorIPPiE4baseB7v160006Ev, symObjAddr: 0x2B5C, symBinAddr: 0x100006230, symSize: 0x14 }
  - { offsetInCU: 0x107DD, offset: 0x107DD, size: 0x8, addend: 0x0, symName: __ZNSt3__114__split_bufferIPiRNS_9allocatorIS1_EEE21_ConstructTransactionC2B7v160006EPPS1_m, symObjAddr: 0x2B70, symBinAddr: 0x100006244, symSize: 0x44 }
  - { offsetInCU: 0x10823, offset: 0x10823, size: 0x8, addend: 0x0, symName: __ZNSt3__117__compressed_pairIPPiRNS_9allocatorIS1_EEE6secondB7v160006Ev, symObjAddr: 0x2BE0, symBinAddr: 0x1000062B4, symSize: 0x28 }
  - { offsetInCU: 0x10849, offset: 0x10849, size: 0x8, addend: 0x0, symName: __ZNSt3__122__compressed_pair_elemIRNS_9allocatorIPiEELi1ELb0EE5__getB7v160006Ev, symObjAddr: 0x2C08, symBinAddr: 0x1000062DC, symSize: 0x18 }
  - { offsetInCU: 0x10874, offset: 0x10874, size: 0x8, addend: 0x0, symName: __ZNKSt3__16ranges11__iter_move4__fnclB7v160006IRKPPiEEDTclsr3stdE4movedeclsr3stdE7forwardIT_Efp_EEEOS8_, symObjAddr: 0x2C20, symBinAddr: 0x1000062F4, symSize: 0x1C }
  - { offsetInCU: 0x108B1, offset: 0x108B1, size: 0x8, addend: 0x0, symName: __ZNSt3__114__split_bufferIPiRNS_9allocatorIS1_EEE21_ConstructTransactionD2B7v160006Ev, symObjAddr: 0x2C3C, symBinAddr: 0x100006310, symSize: 0x20 }
  - { offsetInCU: 0x108DB, offset: 0x108DB, size: 0x8, addend: 0x0, symName: __ZNSt3__113move_iteratorIPPiEC2B7v160006ES2_, symObjAddr: 0x2C5C, symBinAddr: 0x100006330, symSize: 0x20 }
  - { offsetInCU: 0x10913, offset: 0x10913, size: 0x8, addend: 0x0, symName: __ZNKSt3__114__split_bufferIPiNS_9allocatorIS1_EEE9__end_capB7v160006Ev, symObjAddr: 0x2CA8, symBinAddr: 0x10000637C, symSize: 0x28 }
  - { offsetInCU: 0x10939, offset: 0x10939, size: 0x8, addend: 0x0, symName: __ZNKSt3__117__compressed_pairIPPiNS_9allocatorIS1_EEE5firstB7v160006Ev, symObjAddr: 0x2CD0, symBinAddr: 0x1000063A4, symSize: 0x24 }
  - { offsetInCU: 0x1095F, offset: 0x1095F, size: 0x8, addend: 0x0, symName: __ZNKSt3__122__compressed_pair_elemIPPiLi0ELb0EE5__getB7v160006Ev, symObjAddr: 0x2CF4, symBinAddr: 0x1000063C8, symSize: 0x14 }
  - { offsetInCU: 0x10985, offset: 0x10985, size: 0x8, addend: 0x0, symName: __ZNSt3__19allocatorIiE8allocateB7v160006Em, symObjAddr: 0x2D08, symBinAddr: 0x1000063DC, symSize: 0x58 }
  - { offsetInCU: 0x109C3, offset: 0x109C3, size: 0x8, addend: 0x0, symName: __ZNSt3__116allocator_traitsINS_9allocatorIiEEE8max_sizeB7v160006IS2_vvEEmRKS2_, symObjAddr: 0x2D60, symBinAddr: 0x100006434, symSize: 0x28 }
  - { offsetInCU: 0x109EF, offset: 0x109EF, size: 0x8, addend: 0x0, symName: __ZNSt3__114numeric_limitsImE3maxB7v160006Ev, symObjAddr: 0x2E1C, symBinAddr: 0x1000064F0, symSize: 0x14 }
  - { offsetInCU: 0x10A03, offset: 0x10A03, size: 0x8, addend: 0x0, symName: __ZNSt3__123__libcpp_numeric_limitsImLb1EE3maxB7v160006Ev, symObjAddr: 0x2E30, symBinAddr: 0x100006504, symSize: 0x8 }
  - { offsetInCU: 0x10A21, offset: 0x10A21, size: 0x8, addend: 0x0, symName: __ZNKSt3__123__move_backward_trivialclB7v160006IPiS2_Li0EEENS_4pairIPT_PT0_EES5_S5_S7_, symObjAddr: 0x3024, symBinAddr: 0x1000066F8, symSize: 0x48 }
  - { offsetInCU: 0x10A89, offset: 0x10A89, size: 0x8, addend: 0x0, symName: __ZNSt3__14pairIPPiS2_EC1B7v160006IRS2_S5_LPv0EEEOT_OT0_, symObjAddr: 0x3138, symBinAddr: 0x10000680C, symSize: 0x3C }
  - { offsetInCU: 0x10AE7, offset: 0x10AE7, size: 0x8, addend: 0x0, symName: __ZNSt3__14pairIPPiS2_EC2B7v160006IRS2_S5_LPv0EEEOT_OT0_, symObjAddr: 0x3174, symBinAddr: 0x100006848, symSize: 0x34 }
  - { offsetInCU: 0x10B4F, offset: 0x10B4F, size: 0x8, addend: 0x0, symName: __ZNKSt3__16__lessImmEclB7v160006ERKmS3_, symObjAddr: 0x31FC, symBinAddr: 0x1000068D0, symSize: 0x34 }
  - { offsetInCU: 0x10B91, offset: 0x10B91, size: 0x8, addend: 0x0, symName: __ZNSt3__117__compressed_pairIPPiNS_9allocatorIS1_EEE6secondB7v160006Ev, symObjAddr: 0x3230, symBinAddr: 0x100006904, symSize: 0x24 }
  - { offsetInCU: 0x10BB7, offset: 0x10BB7, size: 0x8, addend: 0x0, symName: __ZNSt3__122__compressed_pair_elemINS_9allocatorIPiEELi1ELb1EE5__getB7v160006Ev, symObjAddr: 0x3254, symBinAddr: 0x100006928, symSize: 0x14 }
  - { offsetInCU: 0x10BDD, offset: 0x10BDD, size: 0x8, addend: 0x0, symName: __ZNSt3__114__split_bufferIPiRNS_9allocatorIS1_EEEC2EmmS4_, symObjAddr: 0x3268, symBinAddr: 0x10000693C, symSize: 0xD4 }
  - { offsetInCU: 0x10C50, offset: 0x10C50, size: 0x8, addend: 0x0, symName: __ZNSt3__117__compressed_pairIPPiRNS_9allocatorIS1_EEEC1B7v160006IDnS5_EEOT_OT0_, symObjAddr: 0x333C, symBinAddr: 0x100006A10, symSize: 0x3C }
  - { offsetInCU: 0x10CA8, offset: 0x10CA8, size: 0x8, addend: 0x0, symName: __ZNSt3__117__compressed_pairIPPiRNS_9allocatorIS1_EEEC2B7v160006IDnS5_EEOT_OT0_, symObjAddr: 0x33B8, symBinAddr: 0x100006A8C, symSize: 0x48 }
  - { offsetInCU: 0x10D00, offset: 0x10D00, size: 0x8, addend: 0x0, symName: __ZNSt3__122__compressed_pair_elemIRNS_9allocatorIPiEELi1ELb0EEC2B7v160006IS4_vEEOT_, symObjAddr: 0x3400, symBinAddr: 0x100006AD4, symSize: 0x20 }
  - { offsetInCU: 0x10D42, offset: 0x10D42, size: 0x8, addend: 0x0, symName: __ZNSt3__19allocatorIPiE8allocateB7v160006Em, symObjAddr: 0x3420, symBinAddr: 0x100006AF4, symSize: 0x58 }
  - { offsetInCU: 0x10D80, offset: 0x10D80, size: 0x8, addend: 0x0, symName: __ZNSt3__116allocator_traitsINS_9allocatorIPiEEE8max_sizeB7v160006IS3_vvEEmRKS3_, symObjAddr: 0x3478, symBinAddr: 0x100006B4C, symSize: 0x28 }
  - { offsetInCU: 0x10DAC, offset: 0x10DAC, size: 0x8, addend: 0x0, symName: __ZNSt3__122__allocator_destructorINS_9allocatorIiEEEC2B7v160006ERS2_m, symObjAddr: 0x34A0, symBinAddr: 0x100006B74, symSize: 0x2C }
  - { offsetInCU: 0x10DF2, offset: 0x10DF2, size: 0x8, addend: 0x0, symName: __ZNSt3__110unique_ptrIPiNS_22__allocator_destructorINS_9allocatorIiEEEEEC2B7v160006ILb1EvEES1_NS_16__dependent_typeINS_27__unique_ptr_deleter_sfinaeIS5_EEXT_EE20__good_rval_ref_typeE, symObjAddr: 0x34CC, symBinAddr: 0x100006BA0, symSize: 0x48 }
  - { offsetInCU: 0x10E43, offset: 0x10E43, size: 0x8, addend: 0x0, symName: __ZNSt3__117__compressed_pairIPiNS_22__allocator_destructorINS_9allocatorIiEEEEEC1B7v160006IRS1_S5_EEOT_OT0_, symObjAddr: 0x3514, symBinAddr: 0x100006BE8, symSize: 0x3C }
  - { offsetInCU: 0x10E9B, offset: 0x10E9B, size: 0x8, addend: 0x0, symName: __ZNSt3__117__compressed_pairIPiNS_22__allocator_destructorINS_9allocatorIiEEEEEC2B7v160006IRS1_S5_EEOT_OT0_, symObjAddr: 0x3550, symBinAddr: 0x100006C24, symSize: 0x48 }
  - { offsetInCU: 0x10EF3, offset: 0x10EF3, size: 0x8, addend: 0x0, symName: __ZNSt3__122__compressed_pair_elemIPiLi0ELb0EEC2B7v160006IRS1_vEEOT_, symObjAddr: 0x3598, symBinAddr: 0x100006C6C, symSize: 0x24 }
  - { offsetInCU: 0x10F35, offset: 0x10F35, size: 0x8, addend: 0x0, symName: __ZNSt3__122__compressed_pair_elemINS_22__allocator_destructorINS_9allocatorIiEEEELi1ELb0EEC2B7v160006IS4_vEEOT_, symObjAddr: 0x35BC, symBinAddr: 0x100006C90, symSize: 0x24 }
  - { offsetInCU: 0x10F77, offset: 0x10F77, size: 0x8, addend: 0x0, symName: __ZNKSt3__117__compressed_pairIPiNS_22__allocator_destructorINS_9allocatorIiEEEEE5firstB7v160006Ev, symObjAddr: 0x35E0, symBinAddr: 0x100006CB4, symSize: 0x24 }
  - { offsetInCU: 0x10F9D, offset: 0x10F9D, size: 0x8, addend: 0x0, symName: __ZNKSt3__122__compressed_pair_elemIPiLi0ELb0EE5__getB7v160006Ev, symObjAddr: 0x3604, symBinAddr: 0x100006CD8, symSize: 0x14 }
  - { offsetInCU: 0x10FC3, offset: 0x10FC3, size: 0x8, addend: 0x0, symName: __ZNSt3__117__compressed_pairIPiNS_22__allocator_destructorINS_9allocatorIiEEEEE5firstB7v160006Ev, symObjAddr: 0x3618, symBinAddr: 0x100006CEC, symSize: 0x24 }
  - { offsetInCU: 0x10FE9, offset: 0x10FE9, size: 0x8, addend: 0x0, symName: __ZNSt3__122__compressed_pair_elemIPiLi0ELb0EE5__getB7v160006Ev, symObjAddr: 0x363C, symBinAddr: 0x100006D10, symSize: 0x14 }
  - { offsetInCU: 0x1100F, offset: 0x1100F, size: 0x8, addend: 0x0, symName: __ZNSt3__117__compressed_pairIPPiNS_9allocatorIS1_EEE5firstB7v160006Ev, symObjAddr: 0x3650, symBinAddr: 0x100006D24, symSize: 0x24 }
  - { offsetInCU: 0x11035, offset: 0x11035, size: 0x8, addend: 0x0, symName: __ZNSt3__122__compressed_pair_elemIPPiLi0ELb0EE5__getB7v160006Ev, symObjAddr: 0x3674, symBinAddr: 0x100006D48, symSize: 0x14 }
  - { offsetInCU: 0x1105B, offset: 0x1105B, size: 0x8, addend: 0x0, symName: __ZNSt3__117__compressed_pairIPPiRNS_9allocatorIS1_EEE5firstB7v160006Ev, symObjAddr: 0x3688, symBinAddr: 0x100006D5C, symSize: 0x24 }
  - { offsetInCU: 0x11081, offset: 0x11081, size: 0x8, addend: 0x0, symName: __ZNSt3__110unique_ptrIPiNS_22__allocator_destructorINS_9allocatorIiEEEEED2B7v160006Ev, symObjAddr: 0x36AC, symBinAddr: 0x100006D80, symSize: 0x30 }
  - { offsetInCU: 0x110AB, offset: 0x110AB, size: 0x8, addend: 0x0, symName: __ZNSt3__110unique_ptrIPiNS_22__allocator_destructorINS_9allocatorIiEEEEE5resetB7v160006ES1_, symObjAddr: 0x36DC, symBinAddr: 0x100006DB0, symSize: 0x78 }
  - { offsetInCU: 0x110EF, offset: 0x110EF, size: 0x8, addend: 0x0, symName: __ZNSt3__117__compressed_pairIPiNS_22__allocator_destructorINS_9allocatorIiEEEEE6secondB7v160006Ev, symObjAddr: 0x3754, symBinAddr: 0x100006E28, symSize: 0x28 }
  - { offsetInCU: 0x11115, offset: 0x11115, size: 0x8, addend: 0x0, symName: __ZNSt3__122__allocator_destructorINS_9allocatorIiEEEclB7v160006EPi, symObjAddr: 0x377C, symBinAddr: 0x100006E50, symSize: 0x34 }
  - { offsetInCU: 0x11149, offset: 0x11149, size: 0x8, addend: 0x0, symName: __ZNSt3__122__compressed_pair_elemINS_22__allocator_destructorINS_9allocatorIiEEEELi1ELb0EE5__getB7v160006Ev, symObjAddr: 0x37B0, symBinAddr: 0x100006E84, symSize: 0x14 }
  - { offsetInCU: 0x1116F, offset: 0x1116F, size: 0x8, addend: 0x0, symName: __ZNSt3__116allocator_traitsINS_9allocatorIiEEE10deallocateB7v160006ERS2_Pim, symObjAddr: 0x37C4, symBinAddr: 0x100006E98, symSize: 0x34 }
  - { offsetInCU: 0x111B1, offset: 0x111B1, size: 0x8, addend: 0x0, symName: __ZNSt3__19allocatorIiE10deallocateB7v160006EPim, symObjAddr: 0x37F8, symBinAddr: 0x100006ECC, symSize: 0x40 }
  - { offsetInCU: 0x111F3, offset: 0x111F3, size: 0x8, addend: 0x0, symName: __ZNSt3__114__split_bufferIPiRNS_9allocatorIS1_EEED2Ev, symObjAddr: 0x3940, symBinAddr: 0x100007014, symSize: 0x8C }
  - { offsetInCU: 0x1121F, offset: 0x1121F, size: 0x8, addend: 0x0, symName: __ZNSt3__114__split_bufferIPiRNS_9allocatorIS1_EEE5clearB7v160006Ev, symObjAddr: 0x39CC, symBinAddr: 0x1000070A0, symSize: 0x28 }
  - { offsetInCU: 0x11245, offset: 0x11245, size: 0x8, addend: 0x0, symName: __ZNSt3__116allocator_traitsINS_9allocatorIPiEEE10deallocateB7v160006ERS3_PS2_m, symObjAddr: 0x39F4, symBinAddr: 0x1000070C8, symSize: 0x34 }
  - { offsetInCU: 0x11287, offset: 0x11287, size: 0x8, addend: 0x0, symName: __ZNKSt3__114__split_bufferIPiRNS_9allocatorIS1_EEE8capacityB7v160006Ev, symObjAddr: 0x3A28, symBinAddr: 0x1000070FC, symSize: 0x40 }
  - { offsetInCU: 0x112AD, offset: 0x112AD, size: 0x8, addend: 0x0, symName: __ZNSt3__114__split_bufferIPiRNS_9allocatorIS1_EEE17__destruct_at_endB7v160006EPS1_, symObjAddr: 0x3A68, symBinAddr: 0x10000713C, symSize: 0x2C }
  - { offsetInCU: 0x112E1, offset: 0x112E1, size: 0x8, addend: 0x0, symName: __ZNSt3__114__split_bufferIPiRNS_9allocatorIS1_EEE17__destruct_at_endB7v160006EPS1_NS_17integral_constantIbLb0EEE, symObjAddr: 0x3A94, symBinAddr: 0x100007168, symSize: 0x80 }
  - { offsetInCU: 0x11321, offset: 0x11321, size: 0x8, addend: 0x0, symName: __ZNSt3__116allocator_traitsINS_9allocatorIPiEEE7destroyB7v160006IS2_vvEEvRS3_PT_, symObjAddr: 0x3B14, symBinAddr: 0x1000071E8, symSize: 0x28 }
  - { offsetInCU: 0x1135C, offset: 0x1135C, size: 0x8, addend: 0x0, symName: __ZNSt3__19allocatorIPiE10deallocateB7v160006EPS1_m, symObjAddr: 0x3B70, symBinAddr: 0x100007244, symSize: 0x40 }
  - { offsetInCU: 0x1139E, offset: 0x1139E, size: 0x8, addend: 0x0, symName: __ZNKSt3__114__split_bufferIPiRNS_9allocatorIS1_EEE9__end_capB7v160006Ev, symObjAddr: 0x3BB0, symBinAddr: 0x100007284, symSize: 0x28 }
  - { offsetInCU: 0x113C4, offset: 0x113C4, size: 0x8, addend: 0x0, symName: __ZNKSt3__117__compressed_pairIPPiRNS_9allocatorIS1_EEE5firstB7v160006Ev, symObjAddr: 0x3BD8, symBinAddr: 0x1000072AC, symSize: 0x24 }
  - { offsetInCU: 0x113EA, offset: 0x113EA, size: 0x8, addend: 0x0, symName: __ZNKSt3__114__split_bufferIPiNS_9allocatorIS1_EEE5emptyB7v160006Ev, symObjAddr: 0x3C28, symBinAddr: 0x1000072FC, symSize: 0x28 }
  - { offsetInCU: 0x11410, offset: 0x11410, size: 0x8, addend: 0x0, symName: __ZNSt3__116__deque_iteratorIiPiRiPS1_lLl1024EEC1B7v160006ES3_S1_, symObjAddr: 0x3C50, symBinAddr: 0x100007324, symSize: 0x3C }
  - { offsetInCU: 0x11458, offset: 0x11458, size: 0x8, addend: 0x0, symName: __ZNSt3__116__deque_iteratorIiPiRiPS1_lLl1024EEC2B7v160006ES3_S1_, symObjAddr: 0x3C8C, symBinAddr: 0x100007360, symSize: 0x2C }
  - { offsetInCU: 0x114A0, offset: 0x114A0, size: 0x8, addend: 0x0, symName: __ZNSt3__117__compressed_pairImNS_9allocatorIiEEE5firstB7v160006Ev, symObjAddr: 0x3CB8, symBinAddr: 0x10000738C, symSize: 0x24 }
  - { offsetInCU: 0x114C6, offset: 0x114C6, size: 0x8, addend: 0x0, symName: __ZNSt3__122__compressed_pair_elemImLi0ELb0EE5__getB7v160006Ev, symObjAddr: 0x3CDC, symBinAddr: 0x1000073B0, symSize: 0x14 }
  - { offsetInCU: 0x114EC, offset: 0x114EC, size: 0x8, addend: 0x0, symName: __ZNKSt3__15dequeINS_4pairIiiEENS_9allocatorIS2_EEE5emptyB7v160006Ev, symObjAddr: 0x3CF0, symBinAddr: 0x1000073C4, symSize: 0x30 }
  - { offsetInCU: 0x11512, offset: 0x11512, size: 0x8, addend: 0x0, symName: __ZNKSt3__15dequeINS_4pairIiiEENS_9allocatorIS2_EEE4sizeB7v160006Ev, symObjAddr: 0x3D20, symBinAddr: 0x1000073F4, symSize: 0x28 }
  - { offsetInCU: 0x11538, offset: 0x11538, size: 0x8, addend: 0x0, symName: __ZNKSt3__15dequeINS_4pairIiiEENS_9allocatorIS2_EEE6__sizeB7v160006Ev, symObjAddr: 0x3D48, symBinAddr: 0x10000741C, symSize: 0x28 }
  - { offsetInCU: 0x1155E, offset: 0x1155E, size: 0x8, addend: 0x0, symName: __ZNKSt3__117__compressed_pairImNS_9allocatorINS_4pairIiiEEEEE5firstB7v160006Ev, symObjAddr: 0x3D70, symBinAddr: 0x100007444, symSize: 0x24 }
  - { offsetInCU: 0x11584, offset: 0x11584, size: 0x8, addend: 0x0, symName: __ZNSt3__15dequeINS_4pairIiiEENS_9allocatorIS2_EEE12emplace_backIJRiiEEERS2_DpOT_, symObjAddr: 0x3D94, symBinAddr: 0x100007468, symSize: 0xCC }
  - { offsetInCU: 0x115E9, offset: 0x115E9, size: 0x8, addend: 0x0, symName: __ZNSt3__15dequeINS_4pairIiiEENS_9allocatorIS2_EEE7__allocB7v160006Ev, symObjAddr: 0x3E60, symBinAddr: 0x100007534, symSize: 0x28 }
  - { offsetInCU: 0x1160F, offset: 0x1160F, size: 0x8, addend: 0x0, symName: __ZNKSt3__15dequeINS_4pairIiiEENS_9allocatorIS2_EEE12__back_spareB7v160006Ev, symObjAddr: 0x3E88, symBinAddr: 0x10000755C, symSize: 0x54 }
  - { offsetInCU: 0x11635, offset: 0x11635, size: 0x8, addend: 0x0, symName: __ZNSt3__15dequeINS_4pairIiiEENS_9allocatorIS2_EEE19__add_back_capacityEv, symObjAddr: 0x3EDC, symBinAddr: 0x1000075B0, symSize: 0x314 }
  - { offsetInCU: 0x116EB, offset: 0x116EB, size: 0x8, addend: 0x0, symName: __ZNSt3__116allocator_traitsINS_9allocatorINS_4pairIiiEEEEE9constructB7v160006IS3_JRiiEvvEEvRS4_PT_DpOT0_, symObjAddr: 0x41F0, symBinAddr: 0x1000078C4, symSize: 0x38 }
  - { offsetInCU: 0x11754, offset: 0x11754, size: 0x8, addend: 0x0, symName: __ZNSt3__15dequeINS_4pairIiiEENS_9allocatorIS2_EEE3endB7v160006Ev, symObjAddr: 0x4228, symBinAddr: 0x1000078FC, symSize: 0xCC }
  - { offsetInCU: 0x11798, offset: 0x11798, size: 0x8, addend: 0x0, symName: __ZNKSt3__116__deque_iteratorINS_4pairIiiEEPS2_RS2_PS3_lLl512EEdeB7v160006Ev, symObjAddr: 0x42F4, symBinAddr: 0x1000079C8, symSize: 0x18 }
  - { offsetInCU: 0x117BE, offset: 0x117BE, size: 0x8, addend: 0x0, symName: __ZNSt3__15dequeINS_4pairIiiEENS_9allocatorIS2_EEE6__sizeB7v160006Ev, symObjAddr: 0x430C, symBinAddr: 0x1000079E0, symSize: 0x28 }
  - { offsetInCU: 0x117E4, offset: 0x117E4, size: 0x8, addend: 0x0, symName: __ZNSt3__116__deque_iteratorINS_4pairIiiEEPS2_RS2_PS3_lLl512EEmmB7v160006Ev, symObjAddr: 0x4334, symBinAddr: 0x100007A08, symSize: 0x68 }
  - { offsetInCU: 0x1180A, offset: 0x1180A, size: 0x8, addend: 0x0, symName: __ZNSt3__117__compressed_pairImNS_9allocatorINS_4pairIiiEEEEE6secondB7v160006Ev, symObjAddr: 0x439C, symBinAddr: 0x100007A70, symSize: 0x24 }
  - { offsetInCU: 0x11830, offset: 0x11830, size: 0x8, addend: 0x0, symName: __ZNSt3__122__compressed_pair_elemINS_9allocatorINS_4pairIiiEEEELi1ELb1EE5__getB7v160006Ev, symObjAddr: 0x43C0, symBinAddr: 0x100007A94, symSize: 0x14 }
  - { offsetInCU: 0x11856, offset: 0x11856, size: 0x8, addend: 0x0, symName: __ZNKSt3__15dequeINS_4pairIiiEENS_9allocatorIS2_EEE10__capacityB7v160006Ev, symObjAddr: 0x43D4, symBinAddr: 0x100007AA8, symSize: 0x60 }
  - { offsetInCU: 0x1187C, offset: 0x1187C, size: 0x8, addend: 0x0, symName: __ZNKSt3__114__split_bufferIPNS_4pairIiiEENS_9allocatorIS3_EEE4sizeB7v160006Ev, symObjAddr: 0x4434, symBinAddr: 0x100007B08, symSize: 0x28 }
  - { offsetInCU: 0x118A2, offset: 0x118A2, size: 0x8, addend: 0x0, symName: __ZNKSt3__15dequeINS_4pairIiiEENS_9allocatorIS2_EEE13__front_spareB7v160006Ev, symObjAddr: 0x445C, symBinAddr: 0x100007B30, symSize: 0x18 }
  - { offsetInCU: 0x118C8, offset: 0x118C8, size: 0x8, addend: 0x0, symName: __ZNSt3__114__split_bufferIPNS_4pairIiiEENS_9allocatorIS3_EEE5frontB7v160006Ev, symObjAddr: 0x4474, symBinAddr: 0x100007B48, symSize: 0x18 }
  - { offsetInCU: 0x118EE, offset: 0x118EE, size: 0x8, addend: 0x0, symName: __ZNSt3__114__split_bufferIPNS_4pairIiiEENS_9allocatorIS3_EEE9pop_frontB7v160006Ev, symObjAddr: 0x448C, symBinAddr: 0x100007B60, symSize: 0x2C }
  - { offsetInCU: 0x11914, offset: 0x11914, size: 0x8, addend: 0x0, symName: __ZNSt3__114__split_bufferIPNS_4pairIiiEENS_9allocatorIS3_EEE9push_backB7v160006ERKS3_, symObjAddr: 0x44B8, symBinAddr: 0x100007B8C, symSize: 0x260 }
  - { offsetInCU: 0x1198D, offset: 0x1198D, size: 0x8, addend: 0x0, symName: __ZNKSt3__114__split_bufferIPNS_4pairIiiEENS_9allocatorIS3_EEE8capacityB7v160006Ev, symObjAddr: 0x4718, symBinAddr: 0x100007DEC, symSize: 0x40 }
  - { offsetInCU: 0x119B3, offset: 0x119B3, size: 0x8, addend: 0x0, symName: __ZNKSt3__114__split_bufferIPNS_4pairIiiEENS_9allocatorIS3_EEE12__back_spareB7v160006Ev, symObjAddr: 0x4758, symBinAddr: 0x100007E2C, symSize: 0x40 }
  - { offsetInCU: 0x119D9, offset: 0x119D9, size: 0x8, addend: 0x0, symName: __ZNSt3__114__split_bufferIPNS_4pairIiiEENS_9allocatorIS3_EEE9push_backEOS3_, symObjAddr: 0x4798, symBinAddr: 0x100007E6C, symSize: 0x260 }
  - { offsetInCU: 0x11A52, offset: 0x11A52, size: 0x8, addend: 0x0, symName: __ZNSt3__116allocator_traitsINS_9allocatorINS_4pairIiiEEEEE8allocateB7v160006ERS4_m, symObjAddr: 0x49F8, symBinAddr: 0x1000080CC, symSize: 0x2C }
  - { offsetInCU: 0x11A85, offset: 0x11A85, size: 0x8, addend: 0x0, symName: __ZNSt3__114__split_bufferIPNS_4pairIiiEENS_9allocatorIS3_EEE10push_frontEOS3_, symObjAddr: 0x4A24, symBinAddr: 0x1000080F8, symSize: 0x25C }
  - { offsetInCU: 0x11AFE, offset: 0x11AFE, size: 0x8, addend: 0x0, symName: __ZNSt3__114__split_bufferIPNS_4pairIiiEENS_9allocatorIS3_EEE7__allocB7v160006Ev, symObjAddr: 0x4C80, symBinAddr: 0x100008354, symSize: 0x28 }
  - { offsetInCU: 0x11B24, offset: 0x11B24, size: 0x8, addend: 0x0, symName: __ZNSt3__114__split_bufferIPNS_4pairIiiEERNS_9allocatorIS3_EEEC1EmmS6_, symObjAddr: 0x4CA8, symBinAddr: 0x10000837C, symSize: 0x44 }
  - { offsetInCU: 0x11B7F, offset: 0x11B7F, size: 0x8, addend: 0x0, symName: __ZNSt3__122__allocator_destructorINS_9allocatorINS_4pairIiiEEEEEC1B7v160006ERS4_m, symObjAddr: 0x4CEC, symBinAddr: 0x1000083C0, symSize: 0x3C }
  - { offsetInCU: 0x11C49, offset: 0x11C49, size: 0x8, addend: 0x0, symName: __ZNSt3__110unique_ptrIPNS_4pairIiiEENS_22__allocator_destructorINS_9allocatorIS2_EEEEEC1B7v160006ILb1EvEES3_NS_16__dependent_typeINS_27__unique_ptr_deleter_sfinaeIS7_EEXT_EE20__good_rval_ref_typeE, symObjAddr: 0x4D28, symBinAddr: 0x1000083FC, symSize: 0x3C }
  - { offsetInCU: 0x11C9A, offset: 0x11C9A, size: 0x8, addend: 0x0, symName: __ZNSt3__114__split_bufferIPNS_4pairIiiEERNS_9allocatorIS3_EEE9push_backEOS3_, symObjAddr: 0x4D64, symBinAddr: 0x100008438, symSize: 0x260 }
  - { offsetInCU: 0x11D13, offset: 0x11D13, size: 0x8, addend: 0x0, symName: __ZNKSt3__110unique_ptrIPNS_4pairIiiEENS_22__allocator_destructorINS_9allocatorIS2_EEEEE3getB7v160006Ev, symObjAddr: 0x4FC4, symBinAddr: 0x100008698, symSize: 0x28 }
  - { offsetInCU: 0x11D39, offset: 0x11D39, size: 0x8, addend: 0x0, symName: __ZNSt3__110unique_ptrIPNS_4pairIiiEENS_22__allocator_destructorINS_9allocatorIS2_EEEEE7releaseB7v160006Ev, symObjAddr: 0x4FEC, symBinAddr: 0x1000086C0, symSize: 0x44 }
  - { offsetInCU: 0x11D6E, offset: 0x11D6E, size: 0x8, addend: 0x0, symName: __ZNSt3__114__split_bufferIPNS_4pairIiiEENS_9allocatorIS3_EEE3endB7v160006Ev, symObjAddr: 0x5030, symBinAddr: 0x100008704, symSize: 0x18 }
  - { offsetInCU: 0x11D94, offset: 0x11D94, size: 0x8, addend: 0x0, symName: __ZNSt3__114__split_bufferIPNS_4pairIiiEENS_9allocatorIS3_EEE5beginB7v160006Ev, symObjAddr: 0x5048, symBinAddr: 0x10000871C, symSize: 0x18 }
  - { offsetInCU: 0x11DBA, offset: 0x11DBA, size: 0x8, addend: 0x0, symName: __ZNSt3__114__split_bufferIPNS_4pairIiiEERNS_9allocatorIS3_EEE10push_frontERKS3_, symObjAddr: 0x5060, symBinAddr: 0x100008734, symSize: 0x25C }
  - { offsetInCU: 0x11E33, offset: 0x11E33, size: 0x8, addend: 0x0, symName: __ZNSt3__114__split_bufferIPNS_4pairIiiEENS_9allocatorIS3_EEE9__end_capB7v160006Ev, symObjAddr: 0x52F8, symBinAddr: 0x1000089CC, symSize: 0x28 }
  - { offsetInCU: 0x11E59, offset: 0x11E59, size: 0x8, addend: 0x0, symName: __ZNSt3__114__split_bufferIPNS_4pairIiiEERNS_9allocatorIS3_EEE9__end_capB7v160006Ev, symObjAddr: 0x5320, symBinAddr: 0x1000089F4, symSize: 0x28 }
  - { offsetInCU: 0x11E7F, offset: 0x11E7F, size: 0x8, addend: 0x0, symName: __ZNSt3__110unique_ptrIPNS_4pairIiiEENS_22__allocator_destructorINS_9allocatorIS2_EEEEED1B7v160006Ev, symObjAddr: 0x5348, symBinAddr: 0x100008A1C, symSize: 0x2C }
  - { offsetInCU: 0x11EA9, offset: 0x11EA9, size: 0x8, addend: 0x0, symName: __ZNSt3__114__split_bufferIPNS_4pairIiiEERNS_9allocatorIS3_EEED1Ev, symObjAddr: 0x5374, symBinAddr: 0x100008A48, symSize: 0x2C }
  - { offsetInCU: 0x11ED5, offset: 0x11ED5, size: 0x8, addend: 0x0, symName: __ZNSt3__114__split_bufferIPNS_4pairIiiEENS_9allocatorIS3_EEE19__destruct_at_beginB7v160006EPS3_, symObjAddr: 0x53A0, symBinAddr: 0x100008A74, symSize: 0x2C }
  - { offsetInCU: 0x11F09, offset: 0x11F09, size: 0x8, addend: 0x0, symName: __ZNSt3__114__split_bufferIPNS_4pairIiiEENS_9allocatorIS3_EEE19__destruct_at_beginEPS3_NS_17integral_constantIbLb1EEE, symObjAddr: 0x53CC, symBinAddr: 0x100008AA0, symSize: 0x20 }
  - { offsetInCU: 0x11F49, offset: 0x11F49, size: 0x8, addend: 0x0, symName: __ZNSt3__114__split_bufferIPNS_4pairIiiEERNS_9allocatorIS3_EEE18__construct_at_endINS_13move_iteratorIPS3_EEEENS_9enable_ifIXsr27__is_cpp17_forward_iteratorIT_EE5valueEvE4typeESD_SD_, symObjAddr: 0x542C, symBinAddr: 0x100008B00, symSize: 0xFC }
  - { offsetInCU: 0x11FA5, offset: 0x11FA5, size: 0x8, addend: 0x0, symName: __ZNSt3__113move_iteratorIPPNS_4pairIiiEEEC1B7v160006ES4_, symObjAddr: 0x5528, symBinAddr: 0x100008BFC, symSize: 0x34 }
  - { offsetInCU: 0x11FDD, offset: 0x11FDD, size: 0x8, addend: 0x0, symName: __ZNSt3__116allocator_traitsINS_9allocatorIPNS_4pairIiiEEEEE9constructB7v160006IS4_JRKS4_EvvEEvRS5_PT_DpOT0_, symObjAddr: 0x555C, symBinAddr: 0x100008C30, symSize: 0x30 }
  - { offsetInCU: 0x1204C, offset: 0x1204C, size: 0x8, addend: 0x0, symName: __ZNKSt3__114__move_trivialclB7v160006IPNS_4pairIiiEES4_Li0EEENS2_IPT_PT0_EES6_S6_S8_, symObjAddr: 0x5718, symBinAddr: 0x100008DEC, symSize: 0x48 }
  - { offsetInCU: 0x120B4, offset: 0x120B4, size: 0x8, addend: 0x0, symName: __ZNSt3__119__unwrap_range_implIPPNS_4pairIiiEES4_E8__unwrapB7v160006ES4_S4_, symObjAddr: 0x5824, symBinAddr: 0x100008EF8, symSize: 0x58 }
  - { offsetInCU: 0x120EB, offset: 0x120EB, size: 0x8, addend: 0x0, symName: __ZNSt3__14pairIPPNS0_IiiEES3_EC1B7v160006IS3_S3_LPv0EEEOT_OT0_, symObjAddr: 0x587C, symBinAddr: 0x100008F50, symSize: 0x3C }
  - { offsetInCU: 0x12149, offset: 0x12149, size: 0x8, addend: 0x0, symName: __ZNSt3__14pairIPPNS0_IiiEES3_EC2B7v160006IS3_S3_LPv0EEEOT_OT0_, symObjAddr: 0x58B8, symBinAddr: 0x100008F8C, symSize: 0x34 }
  - { offsetInCU: 0x121A7, offset: 0x121A7, size: 0x8, addend: 0x0, symName: __ZNSt3__14pairIPPNS0_IiiEES3_EC1B7v160006IRS3_S3_LPv0EEEOT_OT0_, symObjAddr: 0x59A8, symBinAddr: 0x10000907C, symSize: 0x3C }
  - { offsetInCU: 0x12205, offset: 0x12205, size: 0x8, addend: 0x0, symName: __ZNSt3__14pairIPPNS0_IiiEES3_EC2B7v160006IRS3_S3_LPv0EEEOT_OT0_, symObjAddr: 0x59E4, symBinAddr: 0x1000090B8, symSize: 0x34 }
  - { offsetInCU: 0x12263, offset: 0x12263, size: 0x8, addend: 0x0, symName: __ZNSt3__118__unwrap_iter_implIPPNS_4pairIiiEELb1EE8__unwrapB7v160006ES4_, symObjAddr: 0x5A18, symBinAddr: 0x1000090EC, symSize: 0x24 }
  - { offsetInCU: 0x12286, offset: 0x12286, size: 0x8, addend: 0x0, symName: __ZNSt3__119__unwrap_range_implIPPNS_4pairIiiEES4_E8__rewrapB7v160006ES4_S4_, symObjAddr: 0x5A3C, symBinAddr: 0x100009110, symSize: 0x2C }
  - { offsetInCU: 0x122B7, offset: 0x122B7, size: 0x8, addend: 0x0, symName: __ZNSt3__118__unwrap_iter_implIPPNS_4pairIiiEELb1EE8__rewrapB7v160006ES4_S4_, symObjAddr: 0x5A68, symBinAddr: 0x10000913C, symSize: 0x50 }
  - { offsetInCU: 0x122F2, offset: 0x122F2, size: 0x8, addend: 0x0, symName: __ZNSt3__114__split_bufferIPNS_4pairIiiEERNS_9allocatorIS3_EEE21_ConstructTransactionC1B7v160006EPPS3_m, symObjAddr: 0x5AF4, symBinAddr: 0x1000091C8, symSize: 0x3C }
  - { offsetInCU: 0x1233E, offset: 0x1233E, size: 0x8, addend: 0x0, symName: __ZNSt3__116allocator_traitsINS_9allocatorIPNS_4pairIiiEEEEE9constructB7v160006IS4_JS4_EvvEEvRS5_PT_DpOT0_, symObjAddr: 0x5B30, symBinAddr: 0x100009204, symSize: 0x30 }
  - { offsetInCU: 0x12393, offset: 0x12393, size: 0x8, addend: 0x0, symName: __ZNSt3__114__split_bufferIPNS_4pairIiiEERNS_9allocatorIS3_EEE7__allocB7v160006Ev, symObjAddr: 0x5B60, symBinAddr: 0x100009234, symSize: 0x28 }
  - { offsetInCU: 0x123B9, offset: 0x123B9, size: 0x8, addend: 0x0, symName: __ZNKSt3__113move_iteratorIPPNS_4pairIiiEEEdeB7v160006Ev, symObjAddr: 0x5B88, symBinAddr: 0x10000925C, symSize: 0x2C }
  - { offsetInCU: 0x123DF, offset: 0x123DF, size: 0x8, addend: 0x0, symName: __ZNSt3__113move_iteratorIPPNS_4pairIiiEEEppB7v160006Ev, symObjAddr: 0x5BB4, symBinAddr: 0x100009288, symSize: 0x20 }
  - { offsetInCU: 0x12405, offset: 0x12405, size: 0x8, addend: 0x0, symName: __ZNSt3__114__split_bufferIPNS_4pairIiiEERNS_9allocatorIS3_EEE21_ConstructTransactionD1B7v160006Ev, symObjAddr: 0x5BD4, symBinAddr: 0x1000092A8, symSize: 0x2C }
  - { offsetInCU: 0x1242F, offset: 0x1242F, size: 0x8, addend: 0x0, symName: __ZNKRSt3__113move_iteratorIPPNS_4pairIiiEEE4baseB7v160006Ev, symObjAddr: 0x5C7C, symBinAddr: 0x100009350, symSize: 0x14 }
  - { offsetInCU: 0x12455, offset: 0x12455, size: 0x8, addend: 0x0, symName: __ZNSt3__114__split_bufferIPNS_4pairIiiEERNS_9allocatorIS3_EEE21_ConstructTransactionC2B7v160006EPPS3_m, symObjAddr: 0x5C90, symBinAddr: 0x100009364, symSize: 0x44 }
  - { offsetInCU: 0x1249B, offset: 0x1249B, size: 0x8, addend: 0x0, symName: __ZNSt3__117__compressed_pairIPPNS_4pairIiiEERNS_9allocatorIS3_EEE6secondB7v160006Ev, symObjAddr: 0x5D00, symBinAddr: 0x1000093D4, symSize: 0x28 }
  - { offsetInCU: 0x124C1, offset: 0x124C1, size: 0x8, addend: 0x0, symName: __ZNSt3__122__compressed_pair_elemIRNS_9allocatorIPNS_4pairIiiEEEELi1ELb0EE5__getB7v160006Ev, symObjAddr: 0x5D28, symBinAddr: 0x1000093FC, symSize: 0x18 }
  - { offsetInCU: 0x124E7, offset: 0x124E7, size: 0x8, addend: 0x0, symName: __ZNKSt3__16ranges11__iter_move4__fnclB7v160006IRKPPNS_4pairIiiEEEEDTclsr3stdE4movedeclsr3stdE7forwardIT_Efp_EEEOSA_, symObjAddr: 0x5D40, symBinAddr: 0x100009414, symSize: 0x1C }
  - { offsetInCU: 0x12524, offset: 0x12524, size: 0x8, addend: 0x0, symName: __ZNSt3__114__split_bufferIPNS_4pairIiiEERNS_9allocatorIS3_EEE21_ConstructTransactionD2B7v160006Ev, symObjAddr: 0x5D5C, symBinAddr: 0x100009430, symSize: 0x20 }
  - { offsetInCU: 0x1254E, offset: 0x1254E, size: 0x8, addend: 0x0, symName: __ZNSt3__113move_iteratorIPPNS_4pairIiiEEEC2B7v160006ES4_, symObjAddr: 0x5D7C, symBinAddr: 0x100009450, symSize: 0x20 }
  - { offsetInCU: 0x12586, offset: 0x12586, size: 0x8, addend: 0x0, symName: __ZNKSt3__114__split_bufferIPNS_4pairIiiEENS_9allocatorIS3_EEE9__end_capB7v160006Ev, symObjAddr: 0x5DC8, symBinAddr: 0x10000949C, symSize: 0x28 }
  - { offsetInCU: 0x125AC, offset: 0x125AC, size: 0x8, addend: 0x0, symName: __ZNKSt3__117__compressed_pairIPPNS_4pairIiiEENS_9allocatorIS3_EEE5firstB7v160006Ev, symObjAddr: 0x5DF0, symBinAddr: 0x1000094C4, symSize: 0x24 }
  - { offsetInCU: 0x125D2, offset: 0x125D2, size: 0x8, addend: 0x0, symName: __ZNKSt3__122__compressed_pair_elemIPPNS_4pairIiiEELi0ELb0EE5__getB7v160006Ev, symObjAddr: 0x5E14, symBinAddr: 0x1000094E8, symSize: 0x14 }
  - { offsetInCU: 0x125F8, offset: 0x125F8, size: 0x8, addend: 0x0, symName: __ZNSt3__19allocatorINS_4pairIiiEEE8allocateB7v160006Em, symObjAddr: 0x5E28, symBinAddr: 0x1000094FC, symSize: 0x58 }
  - { offsetInCU: 0x12636, offset: 0x12636, size: 0x8, addend: 0x0, symName: __ZNSt3__116allocator_traitsINS_9allocatorINS_4pairIiiEEEEE8max_sizeB7v160006IS4_vvEEmRKS4_, symObjAddr: 0x5E80, symBinAddr: 0x100009554, symSize: 0x28 }
  - { offsetInCU: 0x12662, offset: 0x12662, size: 0x8, addend: 0x0, symName: __ZNKSt3__123__move_backward_trivialclB7v160006IPNS_4pairIiiEES4_Li0EEENS2_IPT_PT0_EES6_S6_S8_, symObjAddr: 0x6024, symBinAddr: 0x1000096F8, symSize: 0x48 }
  - { offsetInCU: 0x126CA, offset: 0x126CA, size: 0x8, addend: 0x0, symName: __ZNSt3__14pairIPPNS0_IiiEES3_EC1B7v160006IRS3_S6_LPv0EEEOT_OT0_, symObjAddr: 0x6138, symBinAddr: 0x10000980C, symSize: 0x3C }
  - { offsetInCU: 0x12728, offset: 0x12728, size: 0x8, addend: 0x0, symName: __ZNSt3__14pairIPPNS0_IiiEES3_EC2B7v160006IRS3_S6_LPv0EEEOT_OT0_, symObjAddr: 0x6174, symBinAddr: 0x100009848, symSize: 0x34 }
  - { offsetInCU: 0x12786, offset: 0x12786, size: 0x8, addend: 0x0, symName: __ZNSt3__117__compressed_pairIPPNS_4pairIiiEENS_9allocatorIS3_EEE6secondB7v160006Ev, symObjAddr: 0x61A8, symBinAddr: 0x10000987C, symSize: 0x24 }
  - { offsetInCU: 0x127AC, offset: 0x127AC, size: 0x8, addend: 0x0, symName: __ZNSt3__122__compressed_pair_elemINS_9allocatorIPNS_4pairIiiEEEELi1ELb1EE5__getB7v160006Ev, symObjAddr: 0x61CC, symBinAddr: 0x1000098A0, symSize: 0x14 }
  - { offsetInCU: 0x127D2, offset: 0x127D2, size: 0x8, addend: 0x0, symName: __ZNSt3__114__split_bufferIPNS_4pairIiiEERNS_9allocatorIS3_EEEC2EmmS6_, symObjAddr: 0x61E0, symBinAddr: 0x1000098B4, symSize: 0xD4 }
  - { offsetInCU: 0x12845, offset: 0x12845, size: 0x8, addend: 0x0, symName: __ZNSt3__117__compressed_pairIPPNS_4pairIiiEERNS_9allocatorIS3_EEEC1B7v160006IDnS7_EEOT_OT0_, symObjAddr: 0x62B4, symBinAddr: 0x100009988, symSize: 0x3C }
  - { offsetInCU: 0x1289D, offset: 0x1289D, size: 0x8, addend: 0x0, symName: __ZNSt3__117__compressed_pairIPPNS_4pairIiiEERNS_9allocatorIS3_EEEC2B7v160006IDnS7_EEOT_OT0_, symObjAddr: 0x6330, symBinAddr: 0x100009A04, symSize: 0x48 }
  - { offsetInCU: 0x128F5, offset: 0x128F5, size: 0x8, addend: 0x0, symName: __ZNSt3__122__compressed_pair_elemIRNS_9allocatorIPNS_4pairIiiEEEELi1ELb0EEC2B7v160006IS6_vEEOT_, symObjAddr: 0x6378, symBinAddr: 0x100009A4C, symSize: 0x20 }
  - { offsetInCU: 0x12937, offset: 0x12937, size: 0x8, addend: 0x0, symName: __ZNSt3__19allocatorIPNS_4pairIiiEEE8allocateB7v160006Em, symObjAddr: 0x6398, symBinAddr: 0x100009A6C, symSize: 0x58 }
  - { offsetInCU: 0x12975, offset: 0x12975, size: 0x8, addend: 0x0, symName: __ZNSt3__116allocator_traitsINS_9allocatorIPNS_4pairIiiEEEEE8max_sizeB7v160006IS5_vvEEmRKS5_, symObjAddr: 0x63F0, symBinAddr: 0x100009AC4, symSize: 0x28 }
  - { offsetInCU: 0x129A1, offset: 0x129A1, size: 0x8, addend: 0x0, symName: __ZNSt3__122__allocator_destructorINS_9allocatorINS_4pairIiiEEEEEC2B7v160006ERS4_m, symObjAddr: 0x6418, symBinAddr: 0x100009AEC, symSize: 0x2C }
  - { offsetInCU: 0x129E7, offset: 0x129E7, size: 0x8, addend: 0x0, symName: __ZNSt3__110unique_ptrIPNS_4pairIiiEENS_22__allocator_destructorINS_9allocatorIS2_EEEEEC2B7v160006ILb1EvEES3_NS_16__dependent_typeINS_27__unique_ptr_deleter_sfinaeIS7_EEXT_EE20__good_rval_ref_typeE, symObjAddr: 0x6444, symBinAddr: 0x100009B18, symSize: 0x48 }
  - { offsetInCU: 0x12A38, offset: 0x12A38, size: 0x8, addend: 0x0, symName: __ZNSt3__117__compressed_pairIPNS_4pairIiiEENS_22__allocator_destructorINS_9allocatorIS2_EEEEEC1B7v160006IRS3_S7_EEOT_OT0_, symObjAddr: 0x648C, symBinAddr: 0x100009B60, symSize: 0x3C }
  - { offsetInCU: 0x12A90, offset: 0x12A90, size: 0x8, addend: 0x0, symName: __ZNSt3__117__compressed_pairIPNS_4pairIiiEENS_22__allocator_destructorINS_9allocatorIS2_EEEEEC2B7v160006IRS3_S7_EEOT_OT0_, symObjAddr: 0x64C8, symBinAddr: 0x100009B9C, symSize: 0x48 }
  - { offsetInCU: 0x12AE8, offset: 0x12AE8, size: 0x8, addend: 0x0, symName: __ZNSt3__122__compressed_pair_elemIPNS_4pairIiiEELi0ELb0EEC2B7v160006IRS3_vEEOT_, symObjAddr: 0x6510, symBinAddr: 0x100009BE4, symSize: 0x24 }
  - { offsetInCU: 0x12B2A, offset: 0x12B2A, size: 0x8, addend: 0x0, symName: __ZNSt3__122__compressed_pair_elemINS_22__allocator_destructorINS_9allocatorINS_4pairIiiEEEEEELi1ELb0EEC2B7v160006IS6_vEEOT_, symObjAddr: 0x6534, symBinAddr: 0x100009C08, symSize: 0x24 }
  - { offsetInCU: 0x12B6C, offset: 0x12B6C, size: 0x8, addend: 0x0, symName: __ZNKSt3__117__compressed_pairIPNS_4pairIiiEENS_22__allocator_destructorINS_9allocatorIS2_EEEEE5firstB7v160006Ev, symObjAddr: 0x6558, symBinAddr: 0x100009C2C, symSize: 0x24 }
  - { offsetInCU: 0x12B92, offset: 0x12B92, size: 0x8, addend: 0x0, symName: __ZNKSt3__122__compressed_pair_elemIPNS_4pairIiiEELi0ELb0EE5__getB7v160006Ev, symObjAddr: 0x657C, symBinAddr: 0x100009C50, symSize: 0x14 }
  - { offsetInCU: 0x12BB8, offset: 0x12BB8, size: 0x8, addend: 0x0, symName: __ZNSt3__117__compressed_pairIPNS_4pairIiiEENS_22__allocator_destructorINS_9allocatorIS2_EEEEE5firstB7v160006Ev, symObjAddr: 0x6590, symBinAddr: 0x100009C64, symSize: 0x24 }
  - { offsetInCU: 0x12BDE, offset: 0x12BDE, size: 0x8, addend: 0x0, symName: __ZNSt3__122__compressed_pair_elemIPNS_4pairIiiEELi0ELb0EE5__getB7v160006Ev, symObjAddr: 0x65B4, symBinAddr: 0x100009C88, symSize: 0x14 }
  - { offsetInCU: 0x12C04, offset: 0x12C04, size: 0x8, addend: 0x0, symName: __ZNSt3__117__compressed_pairIPPNS_4pairIiiEENS_9allocatorIS3_EEE5firstB7v160006Ev, symObjAddr: 0x65C8, symBinAddr: 0x100009C9C, symSize: 0x24 }
  - { offsetInCU: 0x12C2A, offset: 0x12C2A, size: 0x8, addend: 0x0, symName: __ZNSt3__122__compressed_pair_elemIPPNS_4pairIiiEELi0ELb0EE5__getB7v160006Ev, symObjAddr: 0x65EC, symBinAddr: 0x100009CC0, symSize: 0x14 }
  - { offsetInCU: 0x12C50, offset: 0x12C50, size: 0x8, addend: 0x0, symName: __ZNSt3__117__compressed_pairIPPNS_4pairIiiEERNS_9allocatorIS3_EEE5firstB7v160006Ev, symObjAddr: 0x6600, symBinAddr: 0x100009CD4, symSize: 0x24 }
  - { offsetInCU: 0x12C76, offset: 0x12C76, size: 0x8, addend: 0x0, symName: __ZNSt3__110unique_ptrIPNS_4pairIiiEENS_22__allocator_destructorINS_9allocatorIS2_EEEEED2B7v160006Ev, symObjAddr: 0x6624, symBinAddr: 0x100009CF8, symSize: 0x30 }
  - { offsetInCU: 0x12CA0, offset: 0x12CA0, size: 0x8, addend: 0x0, symName: __ZNSt3__110unique_ptrIPNS_4pairIiiEENS_22__allocator_destructorINS_9allocatorIS2_EEEEE5resetB7v160006ES3_, symObjAddr: 0x6654, symBinAddr: 0x100009D28, symSize: 0x78 }
  - { offsetInCU: 0x12CE4, offset: 0x12CE4, size: 0x8, addend: 0x0, symName: __ZNSt3__117__compressed_pairIPNS_4pairIiiEENS_22__allocator_destructorINS_9allocatorIS2_EEEEE6secondB7v160006Ev, symObjAddr: 0x66CC, symBinAddr: 0x100009DA0, symSize: 0x28 }
  - { offsetInCU: 0x12D0A, offset: 0x12D0A, size: 0x8, addend: 0x0, symName: __ZNSt3__122__allocator_destructorINS_9allocatorINS_4pairIiiEEEEEclB7v160006EPS3_, symObjAddr: 0x66F4, symBinAddr: 0x100009DC8, symSize: 0x34 }
  - { offsetInCU: 0x12D3E, offset: 0x12D3E, size: 0x8, addend: 0x0, symName: __ZNSt3__122__compressed_pair_elemINS_22__allocator_destructorINS_9allocatorINS_4pairIiiEEEEEELi1ELb0EE5__getB7v160006Ev, symObjAddr: 0x6728, symBinAddr: 0x100009DFC, symSize: 0x14 }
  - { offsetInCU: 0x12D64, offset: 0x12D64, size: 0x8, addend: 0x0, symName: __ZNSt3__116allocator_traitsINS_9allocatorINS_4pairIiiEEEEE10deallocateB7v160006ERS4_PS3_m, symObjAddr: 0x673C, symBinAddr: 0x100009E10, symSize: 0x34 }
  - { offsetInCU: 0x12DA6, offset: 0x12DA6, size: 0x8, addend: 0x0, symName: __ZNSt3__19allocatorINS_4pairIiiEEE10deallocateB7v160006EPS2_m, symObjAddr: 0x6770, symBinAddr: 0x100009E44, symSize: 0x40 }
  - { offsetInCU: 0x12DE8, offset: 0x12DE8, size: 0x8, addend: 0x0, symName: __ZNSt3__114__split_bufferIPNS_4pairIiiEERNS_9allocatorIS3_EEED2Ev, symObjAddr: 0x67B0, symBinAddr: 0x100009E84, symSize: 0x8C }
  - { offsetInCU: 0x12E14, offset: 0x12E14, size: 0x8, addend: 0x0, symName: __ZNSt3__114__split_bufferIPNS_4pairIiiEERNS_9allocatorIS3_EEE5clearB7v160006Ev, symObjAddr: 0x683C, symBinAddr: 0x100009F10, symSize: 0x28 }
  - { offsetInCU: 0x12E3A, offset: 0x12E3A, size: 0x8, addend: 0x0, symName: __ZNSt3__116allocator_traitsINS_9allocatorIPNS_4pairIiiEEEEE10deallocateB7v160006ERS5_PS4_m, symObjAddr: 0x6864, symBinAddr: 0x100009F38, symSize: 0x34 }
  - { offsetInCU: 0x12E7C, offset: 0x12E7C, size: 0x8, addend: 0x0, symName: __ZNKSt3__114__split_bufferIPNS_4pairIiiEERNS_9allocatorIS3_EEE8capacityB7v160006Ev, symObjAddr: 0x6898, symBinAddr: 0x100009F6C, symSize: 0x40 }
  - { offsetInCU: 0x12EA2, offset: 0x12EA2, size: 0x8, addend: 0x0, symName: __ZNSt3__114__split_bufferIPNS_4pairIiiEERNS_9allocatorIS3_EEE17__destruct_at_endB7v160006EPS3_, symObjAddr: 0x68D8, symBinAddr: 0x100009FAC, symSize: 0x2C }
  - { offsetInCU: 0x12ED6, offset: 0x12ED6, size: 0x8, addend: 0x0, symName: __ZNSt3__114__split_bufferIPNS_4pairIiiEERNS_9allocatorIS3_EEE17__destruct_at_endB7v160006EPS3_NS_17integral_constantIbLb0EEE, symObjAddr: 0x6904, symBinAddr: 0x100009FD8, symSize: 0x80 }
  - { offsetInCU: 0x12F16, offset: 0x12F16, size: 0x8, addend: 0x0, symName: __ZNSt3__116allocator_traitsINS_9allocatorIPNS_4pairIiiEEEEE7destroyB7v160006IS4_vvEEvRS5_PT_, symObjAddr: 0x6984, symBinAddr: 0x10000A058, symSize: 0x28 }
  - { offsetInCU: 0x12F51, offset: 0x12F51, size: 0x8, addend: 0x0, symName: __ZNSt3__19allocatorIPNS_4pairIiiEEE10deallocateB7v160006EPS3_m, symObjAddr: 0x69E0, symBinAddr: 0x10000A0B4, symSize: 0x40 }
  - { offsetInCU: 0x12F93, offset: 0x12F93, size: 0x8, addend: 0x0, symName: __ZNKSt3__114__split_bufferIPNS_4pairIiiEERNS_9allocatorIS3_EEE9__end_capB7v160006Ev, symObjAddr: 0x6A20, symBinAddr: 0x10000A0F4, symSize: 0x28 }
  - { offsetInCU: 0x12FB9, offset: 0x12FB9, size: 0x8, addend: 0x0, symName: __ZNKSt3__117__compressed_pairIPPNS_4pairIiiEERNS_9allocatorIS3_EEE5firstB7v160006Ev, symObjAddr: 0x6A48, symBinAddr: 0x10000A11C, symSize: 0x24 }
  - { offsetInCU: 0x12FDF, offset: 0x12FDF, size: 0x8, addend: 0x0, symName: __ZNSt3__14pairIiiEC1B7v160006IRiiLPv0EEEOT_OT0_, symObjAddr: 0x6AB0, symBinAddr: 0x10000A184, symSize: 0x3C }
  - { offsetInCU: 0x1303D, offset: 0x1303D, size: 0x8, addend: 0x0, symName: __ZNSt3__14pairIiiEC2B7v160006IRiiLPv0EEEOT_OT0_, symObjAddr: 0x6AEC, symBinAddr: 0x10000A1C0, symSize: 0x34 }
  - { offsetInCU: 0x1309B, offset: 0x1309B, size: 0x8, addend: 0x0, symName: __ZNKSt3__114__split_bufferIPNS_4pairIiiEENS_9allocatorIS3_EEE5emptyB7v160006Ev, symObjAddr: 0x6B20, symBinAddr: 0x10000A1F4, symSize: 0x28 }
  - { offsetInCU: 0x130C1, offset: 0x130C1, size: 0x8, addend: 0x0, symName: __ZNSt3__116__deque_iteratorINS_4pairIiiEEPS2_RS2_PS3_lLl512EEC1B7v160006ES5_S3_, symObjAddr: 0x6B48, symBinAddr: 0x10000A21C, symSize: 0x3C }
  - { offsetInCU: 0x13109, offset: 0x13109, size: 0x8, addend: 0x0, symName: __ZNSt3__116__deque_iteratorINS_4pairIiiEEPS2_RS2_PS3_lLl512EEC2B7v160006ES5_S3_, symObjAddr: 0x6B84, symBinAddr: 0x10000A258, symSize: 0x2C }
  - { offsetInCU: 0x13151, offset: 0x13151, size: 0x8, addend: 0x0, symName: __ZNSt3__117__compressed_pairImNS_9allocatorINS_4pairIiiEEEEE5firstB7v160006Ev, symObjAddr: 0x6BB0, symBinAddr: 0x10000A284, symSize: 0x24 }
  - { offsetInCU: 0x13177, offset: 0x13177, size: 0x8, addend: 0x0, symName: __ZNSt3__15dequeINS_4pairIiiEENS_9allocatorIS2_EEE4backEv, symObjAddr: 0x6BD4, symBinAddr: 0x10000A2A8, symSize: 0x68 }
  - { offsetInCU: 0x131AE, offset: 0x131AE, size: 0x8, addend: 0x0, symName: __ZNKSt3__15stackINS_4pairIiiEENS_5dequeIS2_NS_9allocatorIS2_EEEEE3topB7v160006Ev, symObjAddr: 0x6C3C, symBinAddr: 0x10000A310, symSize: 0x24 }
  - { offsetInCU: 0x131D4, offset: 0x131D4, size: 0x8, addend: 0x0, symName: __ZNKSt3__15dequeINS_4pairIiiEENS_9allocatorIS2_EEE4backEv, symObjAddr: 0x6C60, symBinAddr: 0x10000A334, symSize: 0x68 }
  - { offsetInCU: 0x1320B, offset: 0x1320B, size: 0x8, addend: 0x0, symName: __ZNKSt3__114__split_bufferIPNS_4pairIiiEENS_9allocatorIS3_EEE5beginB7v160006Ev, symObjAddr: 0x6CC8, symBinAddr: 0x10000A39C, symSize: 0x18 }
  - { offsetInCU: 0x13231, offset: 0x13231, size: 0x8, addend: 0x0, symName: __ZNKSt3__15stackIiNS_5dequeIiNS_9allocatorIiEEEEE5emptyB7v160006Ev, symObjAddr: 0x6CE0, symBinAddr: 0x10000A3B4, symSize: 0x28 }
  - { offsetInCU: 0x13257, offset: 0x13257, size: 0x8, addend: 0x0, symName: __ZNSt3__15stackIiNS_5dequeIiNS_9allocatorIiEEEEE3topB7v160006Ev, symObjAddr: 0x6D08, symBinAddr: 0x10000A3DC, symSize: 0x24 }
  - { offsetInCU: 0x1327D, offset: 0x1327D, size: 0x8, addend: 0x0, symName: __ZNSt3__15stackIiNS_5dequeIiNS_9allocatorIiEEEEE3popB7v160006Ev, symObjAddr: 0x6D2C, symBinAddr: 0x10000A400, symSize: 0x24 }
  - { offsetInCU: 0x132A3, offset: 0x132A3, size: 0x8, addend: 0x0, symName: __ZNSt3__15stackINS_4pairIiiEENS_5dequeIS2_NS_9allocatorIS2_EEEEE3popB7v160006Ev, symObjAddr: 0x6D50, symBinAddr: 0x10000A424, symSize: 0x24 }
  - { offsetInCU: 0x132C9, offset: 0x132C9, size: 0x8, addend: 0x0, symName: __ZNKSt3__15dequeIiNS_9allocatorIiEEE5emptyB7v160006Ev, symObjAddr: 0x6D74, symBinAddr: 0x10000A448, symSize: 0x30 }
  - { offsetInCU: 0x132EF, offset: 0x132EF, size: 0x8, addend: 0x0, symName: __ZNSt3__15dequeIiNS_9allocatorIiEEE4backEv, symObjAddr: 0x6DA4, symBinAddr: 0x10000A478, symSize: 0x68 }
  - { offsetInCU: 0x13326, offset: 0x13326, size: 0x8, addend: 0x0, symName: __ZNSt3__15dequeIiNS_9allocatorIiEEE8pop_backEv, symObjAddr: 0x6E0C, symBinAddr: 0x10000A4E0, symSize: 0xB8 }
  - { offsetInCU: 0x1336C, offset: 0x1336C, size: 0x8, addend: 0x0, symName: __ZNSt3__116allocator_traitsINS_9allocatorIiEEE7destroyB7v160006IivvEEvRS2_PT_, symObjAddr: 0x6EC4, symBinAddr: 0x10000A598, symSize: 0x28 }
  - { offsetInCU: 0x133A7, offset: 0x133A7, size: 0x8, addend: 0x0, symName: __ZNSt3__15dequeIiNS_9allocatorIiEEE25__maybe_remove_back_spareB7v160006Eb, symObjAddr: 0x6F00, symBinAddr: 0x10000A5D4, symSize: 0xCC }
  - { offsetInCU: 0x133DC, offset: 0x133DC, size: 0x8, addend: 0x0, symName: __ZNKSt3__15dequeIiNS_9allocatorIiEEE19__back_spare_blocksB7v160006Ev, symObjAddr: 0x7000, symBinAddr: 0x10000A6D4, symSize: 0x2C }
  - { offsetInCU: 0x13402, offset: 0x13402, size: 0x8, addend: 0x0, symName: __ZNSt3__114__split_bufferIPiNS_9allocatorIS1_EEE4backB7v160006Ev, symObjAddr: 0x702C, symBinAddr: 0x10000A700, symSize: 0x1C }
  - { offsetInCU: 0x13428, offset: 0x13428, size: 0x8, addend: 0x0, symName: __ZNSt3__114__split_bufferIPiNS_9allocatorIS1_EEE8pop_backB7v160006Ev, symObjAddr: 0x7048, symBinAddr: 0x10000A71C, symSize: 0x2C }
  - { offsetInCU: 0x1344E, offset: 0x1344E, size: 0x8, addend: 0x0, symName: __ZNSt3__114__split_bufferIPiNS_9allocatorIS1_EEE17__destruct_at_endB7v160006EPS1_, symObjAddr: 0x7074, symBinAddr: 0x10000A748, symSize: 0x2C }
  - { offsetInCU: 0x13482, offset: 0x13482, size: 0x8, addend: 0x0, symName: __ZNSt3__114__split_bufferIPiNS_9allocatorIS1_EEE17__destruct_at_endB7v160006EPS1_NS_17integral_constantIbLb0EEE, symObjAddr: 0x70A0, symBinAddr: 0x10000A774, symSize: 0x80 }
  - { offsetInCU: 0x134C2, offset: 0x134C2, size: 0x8, addend: 0x0, symName: __ZNSt3__15dequeINS_4pairIiiEENS_9allocatorIS2_EEE8pop_backEv, symObjAddr: 0x7120, symBinAddr: 0x10000A7F4, symSize: 0xB8 }
  - { offsetInCU: 0x13508, offset: 0x13508, size: 0x8, addend: 0x0, symName: __ZNSt3__116allocator_traitsINS_9allocatorINS_4pairIiiEEEEE7destroyB7v160006IS3_vvEEvRS4_PT_, symObjAddr: 0x71D8, symBinAddr: 0x10000A8AC, symSize: 0x28 }
  - { offsetInCU: 0x13543, offset: 0x13543, size: 0x8, addend: 0x0, symName: __ZNSt3__15dequeINS_4pairIiiEENS_9allocatorIS2_EEE25__maybe_remove_back_spareB7v160006Eb, symObjAddr: 0x7214, symBinAddr: 0x10000A8E8, symSize: 0xCC }
  - { offsetInCU: 0x13578, offset: 0x13578, size: 0x8, addend: 0x0, symName: __ZNKSt3__15dequeINS_4pairIiiEENS_9allocatorIS2_EEE19__back_spare_blocksB7v160006Ev, symObjAddr: 0x7314, symBinAddr: 0x10000A9E8, symSize: 0x2C }
  - { offsetInCU: 0x1359E, offset: 0x1359E, size: 0x8, addend: 0x0, symName: __ZNSt3__114__split_bufferIPNS_4pairIiiEENS_9allocatorIS3_EEE4backB7v160006Ev, symObjAddr: 0x7340, symBinAddr: 0x10000AA14, symSize: 0x1C }
  - { offsetInCU: 0x135C4, offset: 0x135C4, size: 0x8, addend: 0x0, symName: __ZNSt3__114__split_bufferIPNS_4pairIiiEENS_9allocatorIS3_EEE8pop_backB7v160006Ev, symObjAddr: 0x735C, symBinAddr: 0x10000AA30, symSize: 0x2C }
  - { offsetInCU: 0x135EA, offset: 0x135EA, size: 0x8, addend: 0x0, symName: __ZNSt3__114__split_bufferIPNS_4pairIiiEENS_9allocatorIS3_EEE17__destruct_at_endB7v160006EPS3_, symObjAddr: 0x7388, symBinAddr: 0x10000AA5C, symSize: 0x2C }
  - { offsetInCU: 0x1361E, offset: 0x1361E, size: 0x8, addend: 0x0, symName: __ZNSt3__114__split_bufferIPNS_4pairIiiEENS_9allocatorIS3_EEE17__destruct_at_endB7v160006EPS3_NS_17integral_constantIbLb0EEE, symObjAddr: 0x73B4, symBinAddr: 0x10000AA88, symSize: 0x80 }
  - { offsetInCU: 0x1365E, offset: 0x1365E, size: 0x8, addend: 0x0, symName: __ZN8MinStackD2Ev, symObjAddr: 0x7434, symBinAddr: 0x10000AB08, symSize: 0x38 }
  - { offsetInCU: 0x1368A, offset: 0x1368A, size: 0x8, addend: 0x0, symName: __ZNSt3__15stackINS_4pairIiiEENS_5dequeIS2_NS_9allocatorIS2_EEEEED1Ev, symObjAddr: 0x746C, symBinAddr: 0x10000AB40, symSize: 0x2C }
  - { offsetInCU: 0x136B6, offset: 0x136B6, size: 0x8, addend: 0x0, symName: __ZNSt3__15stackIiNS_5dequeIiNS_9allocatorIiEEEEED1Ev, symObjAddr: 0x7498, symBinAddr: 0x10000AB6C, symSize: 0x2C }
  - { offsetInCU: 0x136E2, offset: 0x136E2, size: 0x8, addend: 0x0, symName: __ZNSt3__15stackINS_4pairIiiEENS_5dequeIS2_NS_9allocatorIS2_EEEEED2Ev, symObjAddr: 0x74C4, symBinAddr: 0x10000AB98, symSize: 0x2C }
  - { offsetInCU: 0x1370E, offset: 0x1370E, size: 0x8, addend: 0x0, symName: __ZNSt3__15dequeINS_4pairIiiEENS_9allocatorIS2_EEED1B7v160006Ev, symObjAddr: 0x74F0, symBinAddr: 0x10000ABC4, symSize: 0x2C }
  - { offsetInCU: 0x13738, offset: 0x13738, size: 0x8, addend: 0x0, symName: __ZNSt3__15dequeINS_4pairIiiEENS_9allocatorIS2_EEED2B7v160006Ev, symObjAddr: 0x751C, symBinAddr: 0x10000ABF0, symSize: 0x9C }
  - { offsetInCU: 0x1378E, offset: 0x1378E, size: 0x8, addend: 0x0, symName: __ZNSt3__15dequeINS_4pairIiiEENS_9allocatorIS2_EEE5clearEv, symObjAddr: 0x75B8, symBinAddr: 0x10000AC8C, symSize: 0x15C }
  - { offsetInCU: 0x137EA, offset: 0x137EA, size: 0x8, addend: 0x0, symName: __ZNSt3__114__split_bufferIPNS_4pairIiiEENS_9allocatorIS3_EEED1Ev, symObjAddr: 0x7714, symBinAddr: 0x10000ADE8, symSize: 0x2C }
  - { offsetInCU: 0x13816, offset: 0x13816, size: 0x8, addend: 0x0, symName: __ZNSt3__15dequeINS_4pairIiiEENS_9allocatorIS2_EEE5beginB7v160006Ev, symObjAddr: 0x7740, symBinAddr: 0x10000AE14, symSize: 0xA8 }
  - { offsetInCU: 0x1384B, offset: 0x1384B, size: 0x8, addend: 0x0, symName: __ZNSt3__116__deque_iteratorINS_4pairIiiEEPS2_RS2_PS3_lLl512EEppB7v160006Ev, symObjAddr: 0x781C, symBinAddr: 0x10000AEF0, symSize: 0x70 }
  - { offsetInCU: 0x13871, offset: 0x13871, size: 0x8, addend: 0x0, symName: __ZNSt3__114__split_bufferIPNS_4pairIiiEENS_9allocatorIS3_EEED2Ev, symObjAddr: 0x78BC, symBinAddr: 0x10000AF90, symSize: 0x80 }
  - { offsetInCU: 0x1389D, offset: 0x1389D, size: 0x8, addend: 0x0, symName: __ZNSt3__114__split_bufferIPNS_4pairIiiEENS_9allocatorIS3_EEE5clearB7v160006Ev, symObjAddr: 0x793C, symBinAddr: 0x10000B010, symSize: 0x28 }
  - { offsetInCU: 0x138C3, offset: 0x138C3, size: 0x8, addend: 0x0, symName: __ZNSt3__15stackIiNS_5dequeIiNS_9allocatorIiEEEEED2Ev, symObjAddr: 0x7964, symBinAddr: 0x10000B038, symSize: 0x2C }
  - { offsetInCU: 0x138EF, offset: 0x138EF, size: 0x8, addend: 0x0, symName: __ZNSt3__15dequeIiNS_9allocatorIiEEED1B7v160006Ev, symObjAddr: 0x7990, symBinAddr: 0x10000B064, symSize: 0x2C }
  - { offsetInCU: 0x13919, offset: 0x13919, size: 0x8, addend: 0x0, symName: __ZNSt3__15dequeIiNS_9allocatorIiEEED2B7v160006Ev, symObjAddr: 0x79BC, symBinAddr: 0x10000B090, symSize: 0x9C }
  - { offsetInCU: 0x1396F, offset: 0x1396F, size: 0x8, addend: 0x0, symName: __ZNSt3__15dequeIiNS_9allocatorIiEEE5clearEv, symObjAddr: 0x7A58, symBinAddr: 0x10000B12C, symSize: 0x15C }
  - { offsetInCU: 0x139CB, offset: 0x139CB, size: 0x8, addend: 0x0, symName: __ZNSt3__114__split_bufferIPiNS_9allocatorIS1_EEED1Ev, symObjAddr: 0x7BB4, symBinAddr: 0x10000B288, symSize: 0x2C }
  - { offsetInCU: 0x139F7, offset: 0x139F7, size: 0x8, addend: 0x0, symName: __ZNSt3__15dequeIiNS_9allocatorIiEEE5beginB7v160006Ev, symObjAddr: 0x7BE0, symBinAddr: 0x10000B2B4, symSize: 0xA8 }
  - { offsetInCU: 0x13A2C, offset: 0x13A2C, size: 0x8, addend: 0x0, symName: __ZNSt3__116__deque_iteratorIiPiRiPS1_lLl1024EEppB7v160006Ev, symObjAddr: 0x7CBC, symBinAddr: 0x10000B390, symSize: 0x70 }
  - { offsetInCU: 0x13A52, offset: 0x13A52, size: 0x8, addend: 0x0, symName: __ZNSt3__114__split_bufferIPiNS_9allocatorIS1_EEED2Ev, symObjAddr: 0x7D5C, symBinAddr: 0x10000B430, symSize: 0x80 }
  - { offsetInCU: 0x13A7E, offset: 0x13A7E, size: 0x8, addend: 0x0, symName: __ZNSt3__114__split_bufferIPiNS_9allocatorIS1_EEE5clearB7v160006Ev, symObjAddr: 0x7DDC, symBinAddr: 0x10000B4B0, symSize: 0x28 }
  - { offsetInCU: 0x13AA4, offset: 0x13AA4, size: 0x8, addend: 0x0, symName: __ZNKSt3__19basic_iosIcNS_11char_traitsIcEEE5widenB7v160006Ec, symObjAddr: 0x7E04, symBinAddr: 0x10000B4D8, symSize: 0x84 }
  - { offsetInCU: 0x13B12, offset: 0x13B12, size: 0x8, addend: 0x0, symName: __ZNKSt3__15ctypeIcE5widenB7v160006Ec, symObjAddr: 0x7EB4, symBinAddr: 0x10000B588, symSize: 0x38 }
...
